Certificate:
    Data:
        Version: 3 (0x2)
        Serial Number: 4132 (0x1024)
    Signature Algorithm: sha256WithRSAEncryption
        Issuer: O=TLS-O-Matic Intermediate CA 1, CN=TLS-o-matic-intermediate-1
        Validity
            Not Before: Feb 21 14:10:54 2015 GMT
            Not After : Feb 21 14:10:54 2016 GMT
        Subject: O=Happy Hopper Hip Hop Music (and API services) Inc , CN=test15b.tls-o-matic.com
        Subject Public Key Info:
            Public Key Algorithm: rsaEncryption
                Public-Key: (2048 bit)
                Modulus:
                    00:db:df:00:73:de:ca:11:70:bf:c8:8e:c8:9e:e0:
                    99:e9:7e:16:cd:52:33:91:db:89:68:87:34:f1:fb:
                    db:89:4f:c8:ba:63:9a:cb:ae:a2:ff:c5:4c:27:ee:
                    a5:5c:a1:7b:38:f8:89:9b:62:55:e0:1d:bc:7b:f8:
                    52:a3:e2:89:3d:2a:06:84:69:8f:de:8f:4b:ad:3d:
                    34:9c:eb:f7:9a:97:fc:e4:81:d5:cd:6b:4b:38:b2:
                    7d:49:07:7b:63:cb:0e:b2:4d:6e:7e:5c:df:da:97:
                    80:43:05:e6:f1:67:20:7b:c5:d7:6b:f5:99:ba:bc:
                    4f:c1:33:07:5d:52:2d:e1:fe:ed:d6:9b:40:1c:e2:
                    19:04:ea:d2:87:90:c2:04:0f:e0:a1:c9:08:cf:00:
                    24:c4:d1:66:2a:5b:7a:d2:54:fa:43:ec:5a:fd:35:
                    99:5c:3c:cb:de:c3:b2:a7:74:1c:56:ea:5b:eb:7a:
                    aa:08:78:eb:b3:71:71:a4:0a:18:0b:06:ba:b5:b8:
                    2a:5b:f2:8b:f2:98:f8:52:6b:7d:d5:27:3c:5e:ad:
                    f7:65:04:3d:96:de:8e:65:85:5d:33:c9:94:9a:40:
                    e6:34:72:95:c9:35:f6:c4:d0:da:0d:ac:55:1e:68:
                    e7:77:3b:d6:0b:e9:ec:bf:5a:5a:0f:9c:52:63:e9:
                    bb:05
                Exponent: 65537 (0x10001)
        X509v3 extensions:
            X509v3 Basic Constraints: 
                CA:FALSE
            X509v3 Extended Key Usage: 
                TLS Web Server Authentication
            Netscape Comment: 
                TLS-O-Matic No Validation Certificate 💰 
            X509v3 Subject Key Identifier: 
                C8:84:16:B7:47:A8:C9:C5:B6:00:05:DE:8A:7C:8D:C8:49:2A:51:84
            X509v3 Authority Key Identifier: 
                keyid:3C:8D:0C:2C:72:26:28:A0:65:30:77:82:9E:A9:A3:A7:E9:24:F2:B5

            X509v3 Subject Alternative Name: 
                email:info@tls-o-matic.com
    Signature Algorithm: sha256WithRSAEncryption
         8b:cf:61:2e:86:90:92:db:81:1c:d5:aa:e9:c4:f4:91:dc:a5:
         34:34:df:d0:91:3f:80:f0:ea:f4:77:68:83:4e:a8:d6:a4:90:
         04:8a:b7:37:1f:d4:4e:d4:2c:09:ac:31:14:12:c8:52:da:b2:
         6b:c3:cd:15:39:ad:eb:f6:f6:d4:d2:06:83:45:ac:77:dd:45:
         46:de:89:ad:61:f2:b0:80:9a:92:1e:92:ca:d2:06:99:28:8e:
         d6:d9:93:20:e0:4f:6b:1d:1a:54:a2:c7:06:49:9a:99:1d:13:
         c9:6b:11:7f:2e:fc:71:10:e1:cb:06:5f:76:e2:5a:88:2b:93:
         5a:7a:f6:43:86:ec:5d:92:86:6d:8f:fc:9e:5d:85:6e:93:c2:
         c2:56:20:dc:b8:e8:04:62:a4:51:bc:d7:6f:eb:37:9f:44:d9:
         90:3f:a2:24:b5:4b:f6:20:05:40:44:67:39:93:e7:07:f7:c6:
         ca:04:ee:c1:a3:12:f5:a4:85:d0:14:31:46:81:5d:6f:89:78:
         8f:bb:db:f0:f5:b1:d5:85:c1:ac:80:63:eb:eb:a0:21:d9:f3:
         0b:88:f8:fb:e3:b7:d9:3b:43:90:e3:4f:98:6f:ec:02:5d:01:
         9e:74:4c:48:89:07:91:41:40:8b:c4:72:7f:b9:e2:88:5d:79:
         17:4c:32:db
-----BEGIN CERTIFICATE-----
MIID6TCCAtGgAwIBAgICECQwDQYJKoZIhvcNAQELBQAwTTEmMCQGA1UECgwdVExT
LU8tTWF0aWMgSW50ZXJtZWRpYXRlIENBIDExIzAhBgNVBAMMGlRMUy1vLW1hdGlj
LWludGVybWVkaWF0ZS0xMB4XDTE1MDIyMTE0MTA1NFoXDTE2MDIyMTE0MTA1NFow
XzE7MDkGA1UECgwySGFwcHkgSG9wcGVyIEhpcCBIb3AgTXVzaWMgKGFuZCBBUEkg
c2VydmljZXMpIEluYyAxIDAeBgNVBAMMF3Rlc3QxNWIudGxzLW8tbWF0aWMuY29t
MIIBIjANBgkqhkiG9w0BAQEFAAOCAQ8AMIIBCgKCAQEA298Ac97KEXC/yI7InuCZ
6X4WzVIzkduJaIc08fvbiU/IumOay66i/8VMJ+6lXKF7OPiJm2JV4B28e/hSo+KJ
PSoGhGmP3o9LrT00nOv3mpf85IHVzWtLOLJ9SQd7Y8sOsk1uflzf2peAQwXm8Wcg
e8XXa/WZurxPwTMHXVIt4f7t1ptAHOIZBOrSh5DCBA/gockIzwAkxNFmKlt60lT6
Q+xa/TWZXDzL3sOyp3QcVupb63qqCHjrs3FxpAoYCwa6tbgqW/KL8pj4Umt91Sc8
Xq33ZQQ9lt6OZYVdM8mUmkDmNHKVyTX2xNDaDaxVHmjndzvWC+nsv1paD5xSY+m7
BQIDAQABo4HAMIG9MAkGA1UdEwQCMAAwEwYDVR0lBAwwCgYIKwYBBQUHAwEwOgYJ
YIZIAYb4QgENBC0WK1RMUy1PLU1hdGljIE5vIFZhbGlkYXRpb24gQ2VydGlmaWNh
dGUg8J+SsCAwHQYDVR0OBBYEFMiEFrdHqMnFtgAF3op8jchJKlGEMB8GA1UdIwQY
MBaAFDyNDCxyJiigZTB3gp6po6fpJPK1MB8GA1UdEQQYMBaBFGluZm9AdGxzLW8t
bWF0aWMuY29tMA0GCSqGSIb3DQEBCwUAA4IBAQCLz2EuhpCS24Ec1arpxPSR3KU0
NN/QkT+A8Or0d2iDTqjWpJAEirc3H9RO1CwJrDEUEshS2rJrw80VOa3r9vbU0gaD
Rax33UVG3omtYfKwgJqSHpLK0gaZKI7W2ZMg4E9rHRpUoscGSZqZHRPJaxF/Lvxx
EOHLBl924lqIK5NaevZDhuxdkoZtj/yeXYVuk8LCViDcuOgEYqRRvNdv6zefRNmQ
P6IktUv2IAVARGc5k+cH98bKBO7BoxL1pIXQFDFGgV1viXiPu9vw9bHVhcGsgGPr
66Ah2fMLiPj747fZO0OQ40+Yb+wCXQGedExIiQeRQUCLxHJ/ueKIXXkXTDLb
-----END CERTIFICATE-----
