Certificate:
    Data:
        Version: 3 (0x2)
        Serial Number: 4130 (0x1022)
    Signature Algorithm: md5WithRSAEncryption
        Issuer: O=D&O Trustworth Certificates - "Trust Us For Your Security", CN=CA for tls-o-matic.com
        Validity
            Not Before: Jan  1 01:28:28 1992 GMT
            Not After : Apr  1 01:01:01 2035 GMT
        Subject: O=King Arthur Medival Security Experts INC, CN=test21.tls-o-matic.com
        Subject Public Key Info:
            Public Key Algorithm: rsaEncryption
                Public-Key: (512 bit)
                Modulus:
                    00:96:dc:84:27:6b:5d:55:99:81:97:b0:7b:3e:ec:
                    8a:30:d6:1a:6e:9e:7e:f1:88:80:9d:a0:bc:1f:5d:
                    da:1e:7f:36:1d:e1:f1:05:d7:6a:08:a8:03:22:f8:
                    08:3a:a6:41:9d:1e:dd:3b:03:a1:d3:70:4f:a1:d7:
                    d5:ed:22:de:33
                Exponent: 65537 (0x10001)
        X509v3 extensions:
            X509v3 Basic Constraints: 
                CA:FALSE
            X509v3 Extended Key Usage: 
                TLS Web Server Authentication
            Netscape Comment: 
                TLS-O-Matic No Validation Certificate 💰 
            X509v3 Subject Key Identifier: 
                46:02:6E:10:50:73:2C:AD:95:81:0F:68:67:8F:14:0B:25:E9:AA:64
            X509v3 Authority Key Identifier: 
                keyid:04:D6:A2:1A:00:DA:5E:17:88:CF:31:C6:CA:A1:A3:D3:F7:9F:7B:2A

            X509v3 Subject Alternative Name: 
                DNS:test21.tls-o-matic.com
    Signature Algorithm: md5WithRSAEncryption
         5f:e9:29:cf:46:2f:91:d1:14:ce:f0:af:c1:44:b9:8d:7b:63:
         ef:62:7d:83:76:14:52:08:7c:1d:a3:30:f1:fe:a2:ed:da:ad:
         5c:9b:1a:53:bf:24:92:08:cb:b7:0f:f6:63:f7:f7:69:27:7e:
         86:67:1a:0f:bb:8e:cf:ea:97:31:26:49:a6:2a:a7:71:2b:82:
         91:e7:a0:52:f5:4d:ec:11:3e:90:c2:b5:39:cd:f5:1d:a2:54:
         a1:6c:74:f2:59:f9:39:00:8d:91:a8:ca:95:e6:26:4a:6b:3a:
         39:d4:15:27:e2:64:80:8c:c8:83:33:65:6a:9c:c3:37:47:de:
         06:90:71:5f:81:3f:95:e0:13:94:f6:44:10:34:87:56:3c:c9:
         0e:e3:9c:bc:ae:85:80:9c:69:ca:61:c1:63:03:7a:3d:ed:79:
         e5:0a:a5:59:64:be:9e:4f:99:34:34:fe:f1:94:7f:fb:85:51:
         95:51:e6:9f:eb:42:ab:39:39:6c:49:43:ff:2a:41:05:6a:ad:
         b5:57:41:ec:22:bd:4e:b4:4f:cb:fb:7e:e6:79:b6:1a:0c:4a:
         71:64:35:08:64:1d:67:31:97:89:2e:ad:1d:96:73:71:41:7c:
         77:02:fd:75:71:0f:8e:76:ac:3a:5e:4f:78:35:03:f9:d9:2b:
         6f:f5:64:cf:2f:81:5a:05:82:7d:a3:48:98:12:73:d8:1a:57:
         9c:e0:c8:d5:70:4c:46:ff:f0:69:3d:f0:78:60:fc:58:f5:0b:
         7b:e1:3f:47:99:8b:46:55:2a:62:04:2f:0c:9d:da:2e:8b:d4:
         c3:a5:a6:c2:c9:c1:e1:42:af:7e:4e:77:8b:bd:f4:16:51:0c:
         77:e3:38:0b:ef:85:d8:45:55:e7:63:ff:f8:32:24:53:2e:c0:
         6a:16:77:49:fd:a8:44:8c:a9:04:a1:d5:6f:52:66:ca:0e:c0:
         e1:7f:8f:43:06:b9:4f:8d:39:3c:f4:00:69:49:75:83:97:94:
         0b:28:90:05:6d:9f:7a:6d:7c:21:5f:62:3b:d8:4f:c6:e0:01:
         7b:d2:e4:67:15:61:f8:8c:de:80:2e:f4:e2:b1:46:83:ed:1c:
         3f:98:37:86:28:6f:f2:33:4c:09:31:c5:7b:28:91:30:d2:78:
         40:ad:f3:17:6f:a8:b3:5c:67:a9:b9:4c:e9:58:af:ab:95:f5:
         5b:cd:b3:1b:99:ba:c3:4e:97:c3:89:8f:7d:1f:4d:dc:2c:61:
         15:6c:18:42:53:d2:94:20:06:60:ce:23:5f:fb:2b:40:ac:94:
         d0:fb:2d:63:05:82:d1:53:f9:4b:a7:19:dc:b7:6c:f3:d4:1b:
         b1:17:c2:69:fa:1f:4e:5c
-----BEGIN CERTIFICATE-----
MIIEMTCCAhmgAwIBAgICECIwDQYJKoZIhvcNAQEEBQAwZjFDMEEGA1UECgw6RCZP
IFRydXN0d29ydGggQ2VydGlmaWNhdGVzIC0gIlRydXN0IFVzIEZvciBZb3VyIFNl
Y3VyaXR5IjEfMB0GA1UEAwwWQ0EgZm9yIHRscy1vLW1hdGljLmNvbTAeFw05MjAx
MDEwMTI4MjhaFw0zNTA0MDEwMTAxMDFaMFQxMTAvBgNVBAoMKEtpbmcgQXJ0aHVy
IE1lZGl2YWwgU2VjdXJpdHkgRXhwZXJ0cyBJTkMxHzAdBgNVBAMMFnRlc3QyMS50
bHMtby1tYXRpYy5jb20wXDANBgkqhkiG9w0BAQEFAANLADBIAkEAltyEJ2tdVZmB
l7B7PuyKMNYabp5+8YiAnaC8H13aHn82HeHxBddqCKgDIvgIOqZBnR7dOwOh03BP
odfV7SLeMwIDAQABo4HCMIG/MAkGA1UdEwQCMAAwEwYDVR0lBAwwCgYIKwYBBQUH
AwEwOgYJYIZIAYb4QgENBC0WK1RMUy1PLU1hdGljIE5vIFZhbGlkYXRpb24gQ2Vy
dGlmaWNhdGUg8J+SsCAwHQYDVR0OBBYEFEYCbhBQcyytlYEPaGePFAsl6apkMB8G
A1UdIwQYMBaAFATWohoA2l4XiM8xxsqho9P3n3sqMCEGA1UdEQQaMBiCFnRlc3Qy
MS50bHMtby1tYXRpYy5jb20wDQYJKoZIhvcNAQEEBQADggIBAF/pKc9GL5HRFM7w
r8FEuY17Y+9ifYN2FFIIfB2jMPH+ou3arVybGlO/JJIIy7cP9mP392knfoZnGg+7
js/qlzEmSaYqp3ErgpHnoFL1TewRPpDCtTnN9R2iVKFsdPJZ+TkAjZGoypXmJkpr
OjnUFSfiZICMyIMzZWqcwzdH3gaQcV+BP5XgE5T2RBA0h1Y8yQ7jnLyuhYCcacph
wWMDej3teeUKpVlkvp5PmTQ0/vGUf/uFUZVR5p/rQqs5OWxJQ/8qQQVqrbVXQewi
vU60T8v7fuZ5thoMSnFkNQhkHWcxl4kurR2Wc3FBfHcC/XVxD452rDpeT3g1A/nZ
K2/1ZM8vgVoFgn2jSJgSc9gaV5zgyNVwTEb/8Gk98Hhg/Fj1C3vhP0eZi0ZVKmIE
Lwyd2i6L1MOlpsLJweFCr35Od4u99BZRDHfjOAvvhdhFVedj//gyJFMuwGoWd0n9
qESMqQSh1W9SZsoOwOF/j0MGuU+NOTz0AGlJdYOXlAsokAVtn3ptfCFfYjvYT8bg
AXvS5GcVYfiM3oAu9OKxRoPtHD+YN4Yob/IzTAkxxXsokTDSeECt8xdvqLNcZ6m5
TOlYr6uV9VvNsxuZusNOl8OJj30fTdwsYRVsGEJT0pQgBmDOI1/7K0CslND7LWMF
gtFT+UunGdy3bPPUG7EXwmn6H05c
-----END CERTIFICATE-----
