Certificate:
    Data:
        Version: 3 (0x2)
        Serial Number: 4140 (0x102c)
    Signature Algorithm: md5WithRSAEncryption
        Issuer: O=D&O TLS-O-MATIC CERTIFICATE AUTHORITY AB, CN=tls-o-matic.com
        Validity
            Not Before: Jan  1 01:28:28 1992 GMT
            Not After : Apr  1 01:01:01 2035 GMT
        Subject: O=King Arthur Medival Security Experts INC, CN=test21.tls-o-matic.com
        Subject Public Key Info:
            Public Key Algorithm: rsaEncryption
                Public-Key: (512 bit)
                Modulus:
                    00:a5:e4:ba:78:e6:ee:3f:5f:6a:bb:eb:0e:c8:d6:
                    59:91:26:06:d7:b0:8c:18:51:94:8d:df:58:e3:ff:
                    f2:7e:9f:40:43:98:68:55:89:0f:97:51:79:4c:b0:
                    62:74:14:c0:0f:80:c1:be:dd:b3:a4:b1:4f:13:97:
                    50:85:56:c7:21
                Exponent: 65537 (0x10001)
        X509v3 extensions:
            X509v3 Basic Constraints: 
                CA:FALSE
            X509v3 Extended Key Usage: 
                TLS Web Server Authentication
            Netscape Comment: 
                TLS-O-Matic No Validation Certificate 💰 
            X509v3 Subject Key Identifier: 
                DE:FC:41:E5:83:86:28:66:01:91:56:9F:94:0E:AA:8D:68:FA:93:DA
            X509v3 Authority Key Identifier: 
                keyid:1D:6D:58:5B:49:3A:CC:00:2B:22:20:40:42:56:DD:C7:EB:B2:73:45

            X509v3 Subject Alternative Name: 
                DNS:test21.tls-o-matic.com
    Signature Algorithm: md5WithRSAEncryption
         07:23:d4:8e:f4:9e:24:ea:ac:69:08:54:a0:de:b2:ee:6d:f0:
         75:36:09:4a:db:cc:0f:89:1e:3d:46:ca:73:5d:85:2f:ab:b1:
         e7:04:7c:87:dc:41:a2:a1:77:5a:47:18:a9:ba:e5:2e:ff:29:
         9d:4e:f1:a1:f1:26:2d:d8:76:d4:9d:41:15:1a:ce:65:72:ac:
         09:4f:df:b8:8f:e7:77:71:d1:f4:5f:59:50:28:82:d3:c9:31:
         5b:70:f1:34:3c:b0:cd:d9:a9:bc:ba:fd:f9:5e:ed:c0:1c:e9:
         67:2b:52:8d:b6:cd:dc:7a:1b:96:15:62:c5:87:da:db:03:00:
         d4:1c:a9:e0:cb:9b:43:a2:06:66:01:dd:af:e8:b1:e4:8d:ae:
         ce:20:eb:b9:09:53:8d:a3:3d:81:6c:73:b6:f8:09:83:15:68:
         2c:00:d7:b7:e1:67:18:f2:80:31:6a:ed:78:42:1d:e6:1b:6a:
         80:a1:67:ba:0f:bf:16:c0:f5:b9:d6:30:cb:72:95:ad:83:53:
         95:cb:98:3f:7b:95:4f:3e:5a:ae:ec:28:92:6a:0a:7e:02:63:
         53:9c:f7:d8:ac:33:36:50:e5:31:e1:ec:87:91:7c:3f:3b:bc:
         50:e0:94:9a:9d:8e:e7:61:5f:a9:7c:bd:fd:39:c1:8e:9f:13:
         43:fd:6a:1a
-----BEGIN CERTIFICATE-----
MIIDGDCCAgCgAwIBAgICECwwDQYJKoZIhvcNAQEEBQAwTTExMC8GA1UEChQoRCZP
IFRMUy1PLU1BVElDIENFUlRJRklDQVRFIEFVVEhPUklUWSBBQjEYMBYGA1UEAxMP
dGxzLW8tbWF0aWMuY29tMB4XDTkyMDEwMTAxMjgyOFoXDTM1MDQwMTAxMDEwMVow
VDExMC8GA1UECgwoS2luZyBBcnRodXIgTWVkaXZhbCBTZWN1cml0eSBFeHBlcnRz
IElOQzEfMB0GA1UEAwwWdGVzdDIxLnRscy1vLW1hdGljLmNvbTBcMA0GCSqGSIb3
DQEBAQUAA0sAMEgCQQCl5Lp45u4/X2q76w7I1lmRJgbXsIwYUZSN31jj//J+n0BD
mGhViQ+XUXlMsGJ0FMAPgMG+3bOksU8Tl1CFVschAgMBAAGjgcIwgb8wCQYDVR0T
BAIwADATBgNVHSUEDDAKBggrBgEFBQcDATA6BglghkgBhvhCAQ0ELRYrVExTLU8t
TWF0aWMgTm8gVmFsaWRhdGlvbiBDZXJ0aWZpY2F0ZSDwn5KwIDAdBgNVHQ4EFgQU
3vxB5YOGKGYBkVaflA6qjWj6k9owHwYDVR0jBBgwFoAUHW1YW0k6zAArIiBAQlbd
x+uyc0UwIQYDVR0RBBowGIIWdGVzdDIxLnRscy1vLW1hdGljLmNvbTANBgkqhkiG
9w0BAQQFAAOCAQEAByPUjvSeJOqsaQhUoN6y7m3wdTYJStvMD4kePUbKc12FL6ux
5wR8h9xBoqF3WkcYqbrlLv8pnU7xofEmLdh21J1BFRrOZXKsCU/fuI/nd3HR9F9Z
UCiC08kxW3DxNDywzdmpvLr9+V7twBzpZytSjbbN3HoblhVixYfa2wMA1Byp4Mub
Q6IGZgHdr+ix5I2uziDruQlTjaM9gWxztvgJgxVoLADXt+FnGPKAMWrteEId5htq
gKFnug+/FsD1udYwy3KVrYNTlcuYP3uVTz5aruwokmoKfgJjU5z32KwzNlDlMeHs
h5F8Pzu8UOCUmp2O52FfqXy9/TnBjp8TQ/1qGg==
-----END CERTIFICATE-----
