Certificate:
    Data:
        Version: 3 (0x2)
        Serial Number: 4112 (0x1010)
    Signature Algorithm: sha256WithRSAEncryption
        Issuer: O=D&O Trustworth Certificates - "Trust Us For Your Security", CN=CA for tls-o-matic.com
        Validity
            Not Before: Mar  1 19:28:16 2015 GMT
            Not After : Feb 29 19:28:16 2016 GMT
        Subject: O=Another one bites the dust Inc, CN=test2.tls-o-matic.null
        Subject Public Key Info:
            Public Key Algorithm: rsaEncryption
                Public-Key: (2048 bit)
                Modulus:
                    00:c6:fc:c9:7a:0e:c9:29:9f:8c:77:8a:76:49:82:
                    6b:43:9b:6b:e7:48:02:35:32:00:26:fa:b1:3e:65:
                    2a:80:e6:68:42:2f:62:60:b0:c8:66:4b:c6:11:be:
                    67:a4:3f:22:ea:56:db:81:e7:5c:42:46:b4:3a:de:
                    75:c8:91:7c:6c:97:b7:5a:4c:3b:5e:26:05:d3:2a:
                    83:ab:23:45:ef:83:34:f7:36:3e:e2:20:7a:d5:e4:
                    5c:ae:a9:03:77:9f:a3:65:80:d9:13:21:c3:7a:49:
                    71:d2:d3:a0:3c:a0:2e:e3:c9:3e:15:a3:90:cf:96:
                    06:ab:9f:e3:44:62:99:85:65:fe:da:bd:3f:7c:bf:
                    f0:aa:94:82:e3:89:c8:80:82:7d:68:55:3f:68:5f:
                    57:ae:e0:5b:db:a3:00:6f:9e:2f:31:43:95:79:ca:
                    97:e5:66:8d:d5:4b:c7:72:ee:e3:99:4e:dd:26:40:
                    cf:2f:75:7d:8b:e7:79:f4:5c:fe:c0:62:d4:fe:e1:
                    d0:f7:f2:12:3b:c0:19:d7:1a:2d:e2:db:81:8a:f2:
                    da:df:cb:2c:4d:22:dd:e4:93:9d:66:f6:09:54:15:
                    cb:17:c2:79:65:7a:f8:72:48:ee:f9:0a:24:7c:3d:
                    62:00:df:73:11:42:f7:51:0b:cc:3a:08:b9:43:17:
                    5d:1f
                Exponent: 65537 (0x10001)
        X509v3 extensions:
            X509v3 Basic Constraints: 
                CA:FALSE
            X509v3 Extended Key Usage: 
                TLS Web Server Authentication
            Netscape Comment: 
                TLS-O-Matic Beer Validation Certificate 💰 
            X509v3 Subject Key Identifier: 
                21:18:7E:8A:53:AD:74:38:B1:06:30:80:F2:71:79:4B:20:AA:E4:BA
            X509v3 Authority Key Identifier: 
                keyid:04:D6:A2:1A:00:DA:5E:17:88:CF:31:C6:CA:A1:A3:D3:F7:9F:7B:2A

    Signature Algorithm: sha256WithRSAEncryption
         40:12:8d:3a:1d:f6:cb:05:0c:56:f3:4b:ec:12:13:eb:22:76:
         0b:5a:fa:7e:15:ba:a4:a9:71:2b:e9:7f:fc:93:81:75:e7:17:
         e4:9c:ac:99:14:ec:33:92:cc:8a:be:56:77:22:cd:b8:59:7a:
         36:96:63:37:b0:c4:18:85:19:de:79:d5:0e:8f:77:cc:a4:49:
         00:fe:fd:e4:c2:87:fe:22:49:db:90:a1:f4:dc:88:df:7b:f2:
         38:a0:9f:d9:ec:da:1f:79:8b:12:5d:a2:0e:ec:a6:f8:a8:31:
         11:58:00:e5:c5:c2:32:fa:00:9b:83:ae:8b:87:52:b1:28:2f:
         53:2a:45:50:f9:ab:0f:89:09:7f:46:83:c2:3b:6d:ca:ad:36:
         8e:cb:d4:c9:13:74:b5:e0:6f:e7:38:22:0b:80:d8:0d:ae:4c:
         be:45:52:0d:2c:c3:40:f9:cd:d9:b3:50:72:e5:40:83:e0:fa:
         b3:a0:8e:01:76:2d:34:85:b9:85:c7:86:05:d3:b6:45:b9:a6:
         99:89:3b:44:18:f3:24:8d:f8:5d:2d:5c:7b:b1:25:d0:a7:c3:
         81:4e:4d:d1:28:3f:30:75:1d:ca:03:be:59:85:af:c2:fb:21:
         a6:22:d2:68:ee:4e:62:1b:74:e9:7b:07:6e:df:61:2e:db:ea:
         3e:2d:8b:f0:ef:a9:da:32:28:d1:b9:6d:d4:97:6a:fe:14:52:
         5e:a7:4b:2e:df:f8:f1:fd:0a:8e:f7:87:36:7a:d8:be:b8:60:
         f9:a2:7d:90:41:a5:47:c2:52:92:8e:0c:c7:bb:41:7c:53:9b:
         b7:54:05:d6:a1:3f:33:7b:e9:f1:45:2c:e8:cd:8a:5c:b3:27:
         11:26:0b:05:66:c7:d1:7c:eb:d9:eb:68:66:1f:fd:d4:f5:d2:
         55:ff:0d:ac:41:8f:a9:13:99:dd:61:24:ef:16:14:5b:d0:95:
         b8:8a:6f:3e:d4:b2:25:dc:81:a7:1b:55:43:b0:1d:18:e1:08:
         34:39:34:1f:59:08:0b:43:a5:35:4d:5e:55:b1:b9:bc:83:f4:
         04:32:2f:e4:c8:11:45:f2:1a:4c:b6:88:76:b2:6e:5f:a6:b6:
         b4:8c:3a:f9:c5:dd:10:db:f7:91:53:da:f1:02:05:45:86:ae:
         c3:a8:c5:00:ab:8e:42:6b:1a:b2:03:65:3c:a9:a8:e8:7a:85:
         bd:ea:1b:0a:20:b6:ed:2f:9f:c8:27:ac:28:c6:14:ee:f2:a2:
         3d:0f:c1:ea:25:eb:8c:b3:32:2c:4c:58:46:d6:67:1e:4d:67:
         e9:e8:40:1e:43:e7:c6:36:4b:25:aa:91:c3:6b:08:1a:01:7d:
         78:a4:a6:20:dc:0d:43:52
-----BEGIN CERTIFICATE-----
MIIEzjCCAragAwIBAgICEBAwDQYJKoZIhvcNAQELBQAwZjFDMEEGA1UECgw6RCZP
IFRydXN0d29ydGggQ2VydGlmaWNhdGVzIC0gIlRydXN0IFVzIEZvciBZb3VyIFNl
Y3VyaXR5IjEfMB0GA1UEAwwWQ0EgZm9yIHRscy1vLW1hdGljLmNvbTAeFw0xNTAz
MDExOTI4MTZaFw0xNjAyMjkxOTI4MTZaMEoxJzAlBgNVBAoMHkFub3RoZXIgb25l
IGJpdGVzIHRoZSBkdXN0IEluYzEfMB0GA1UEAwwWdGVzdDIudGxzLW8tbWF0aWMu
bnVsbDCCASIwDQYJKoZIhvcNAQEBBQADggEPADCCAQoCggEBAMb8yXoOySmfjHeK
dkmCa0Oba+dIAjUyACb6sT5lKoDmaEIvYmCwyGZLxhG+Z6Q/IupW24HnXEJGtDre
dciRfGyXt1pMO14mBdMqg6sjRe+DNPc2PuIgetXkXK6pA3efo2WA2RMhw3pJcdLT
oDygLuPJPhWjkM+WBquf40RimYVl/tq9P3y/8KqUguOJyICCfWhVP2hfV67gW9uj
AG+eLzFDlXnKl+VmjdVLx3Lu45lO3SZAzy91fYvnefRc/sBi1P7h0PfyEjvAGdca
LeLbgYry2t/LLE0i3eSTnWb2CVQVyxfCeWV6+HJI7vkKJHw9YgDfcxFC91ELzDoI
uUMXXR8CAwEAAaOBoTCBnjAJBgNVHRMEAjAAMBMGA1UdJQQMMAoGCCsGAQUFBwMB
MDwGCWCGSAGG+EIBDQQvFi1UTFMtTy1NYXRpYyBCZWVyIFZhbGlkYXRpb24gQ2Vy
dGlmaWNhdGUg8J+SsCAwHQYDVR0OBBYEFCEYfopTrXQ4sQYwgPJxeUsgquS6MB8G
A1UdIwQYMBaAFATWohoA2l4XiM8xxsqho9P3n3sqMA0GCSqGSIb3DQEBCwUAA4IC
AQBAEo06HfbLBQxW80vsEhPrInYLWvp+FbqkqXEr6X/8k4F15xfknKyZFOwzksyK
vlZ3Is24WXo2lmM3sMQYhRneedUOj3fMpEkA/v3kwof+IknbkKH03Ijfe/I4oJ/Z
7NofeYsSXaIO7Kb4qDERWADlxcIy+gCbg66Lh1KxKC9TKkVQ+asPiQl/RoPCO23K
rTaOy9TJE3S14G/nOCILgNgNrky+RVINLMNA+c3Zs1By5UCD4PqzoI4Bdi00hbmF
x4YF07ZFuaaZiTtEGPMkjfhdLVx7sSXQp8OBTk3RKD8wdR3KA75Zha/C+yGmItJo
7k5iG3Tpewdu32Eu2+o+LYvw76naMijRuW3Ul2r+FFJep0su3/jx/QqO94c2eti+
uGD5on2QQaVHwlKSjgzHu0F8U5u3VAXWoT8ze+nxRSzozYpcsycRJgsFZsfRfOvZ
62hmH/3U9dJV/w2sQY+pE5ndYSTvFhRb0JW4im8+1LIl3IGnG1VDsB0Y4Qg0OTQf
WQgLQ6U1TV5Vsbm8g/QEMi/kyBFF8hpMtoh2sm5fpra0jDr5xd0Q2/eRU9rxAgVF
hq7DqMUAq45CaxqyA2U8qajoeoW96hsKILbtL5/IJ6woxhTu8qI9D8HqJeuMszIs
TFhG1mceTWfp6EAeQ+fGNkslqpHDawgaAX14pKYg3A1DUg==
-----END CERTIFICATE-----
