Certificate:
    Data:
        Version: 3 (0x2)
        Serial Number: 4113 (0x1011)
    Signature Algorithm: sha256WithRSAEncryption
        Issuer: O=D&O Trustworth Certificates - "Trust Us For Your Security", CN=CA for tls-o-matic.com
        Validity
            Not Before: Mar  1 19:28:26 2015 GMT
            Not After : Feb 29 19:28:26 2016 GMT
        Subject: O=Lucy In the Sky with Certificates, CN=test3.tls-o-matic.com
        Subject Public Key Info:
            Public Key Algorithm: rsaEncryption
                Public-Key: (2048 bit)
                Modulus:
                    00:a4:4b:0a:c1:b4:40:ad:56:3b:8b:b1:50:d7:26:
                    a6:95:79:2a:1d:53:0d:b8:2c:05:ff:ee:7d:83:41:
                    34:39:c8:19:3e:6d:7f:73:95:96:19:76:60:08:38:
                    28:ed:97:7e:9e:fb:66:16:f2:f9:01:c1:39:37:8d:
                    89:75:d8:46:18:22:01:39:d1:f4:f3:49:83:a9:ab:
                    ed:c5:8c:fe:b7:00:8e:f8:ee:54:91:be:be:d0:6e:
                    bc:cf:fb:0b:45:e3:4d:d7:e1:3c:98:79:07:40:c8:
                    43:94:07:d9:ee:cb:61:6a:cc:cc:e9:59:42:86:12:
                    39:6d:e7:38:25:b8:55:10:03:ae:c8:00:a0:4b:2d:
                    1f:f3:92:96:ee:96:cd:80:2e:dd:fc:60:44:18:8e:
                    86:aa:53:28:ac:22:a9:3d:ba:2d:96:96:1b:13:73:
                    ae:8b:cd:8a:b4:69:e1:7c:17:d4:7a:02:fd:ec:0f:
                    21:49:f5:5e:79:57:95:71:74:92:08:2e:bf:20:c8:
                    fb:2e:da:53:3c:9d:49:6d:f2:ce:f4:30:9a:8f:09:
                    9d:f6:68:6e:6c:b2:7a:e2:0c:d1:51:76:b6:2e:c2:
                    05:b9:fd:be:fd:8c:e7:8e:e1:c9:48:dc:cf:32:a5:
                    94:11:f5:2d:93:f4:d9:c7:77:02:d6:4d:75:94:dc:
                    0b:0b
                Exponent: 65537 (0x10001)
        X509v3 extensions:
            X509v3 Basic Constraints: 
                CA:FALSE
            X509v3 Extended Key Usage: 
                TLS Web Server Authentication
            Netscape Comment: 
                TLS-O-Matic No Validation Certificate 💰 
            X509v3 Subject Key Identifier: 
                F3:75:CD:6D:B4:FE:2D:81:31:38:7A:88:FE:CF:11:1B:8E:58:88:4B
            X509v3 Authority Key Identifier: 
                keyid:04:D6:A2:1A:00:DA:5E:17:88:CF:31:C6:CA:A1:A3:D3:F7:9F:7B:2A

            X509v3 Subject Alternative Name: 
                DNS:test3.tls-o-matic.null
    Signature Algorithm: sha256WithRSAEncryption
         79:78:8b:0b:7f:e3:7b:ba:c6:2b:d3:2c:42:34:8c:43:78:e5:
         24:d7:18:7a:39:e6:28:3d:a9:a0:c5:1b:cd:0a:f9:d3:93:f5:
         d4:cb:47:32:dc:b7:68:bc:30:fb:11:ad:5f:1a:8b:95:98:d7:
         b0:72:09:c9:33:a3:7e:f9:b7:0d:22:f4:05:99:f4:36:1e:cb:
         4f:e2:c9:43:23:d4:8b:a3:ea:0c:61:e9:39:2d:e1:80:b5:40:
         6f:12:2a:77:7a:be:49:eb:a2:3b:a1:06:71:0a:08:bf:29:34:
         f6:74:70:fd:bf:f3:4b:5c:ef:7e:b7:a6:bd:8e:e1:3c:36:30:
         5d:a1:dd:ce:4f:4b:cc:1a:70:fc:d9:8d:52:1b:f3:0a:cf:27:
         54:e7:bd:a1:22:6f:05:94:25:c2:0d:b3:23:a1:2a:bc:b8:19:
         de:3f:98:f5:23:8c:3d:51:cd:f9:c8:b0:ba:10:5b:33:9c:84:
         f8:70:f3:2d:79:22:d4:d7:22:47:00:ae:46:f2:cf:f8:0c:a6:
         1f:5f:a5:ca:c2:10:79:25:3b:63:69:2c:e6:d9:68:b5:31:7f:
         78:93:9f:b1:ee:c2:92:ac:00:ed:07:0a:96:8c:15:23:0d:0e:
         4c:78:9a:a3:ab:39:5f:f6:ef:76:e8:de:ff:c3:a4:c4:07:43:
         22:53:07:c5:01:07:98:fc:71:bb:25:f3:7f:bc:65:9c:01:b5:
         8c:06:19:8e:ea:45:73:48:67:d8:a8:69:11:b6:9f:e0:d2:b8:
         18:0e:12:d4:6f:b1:5e:42:b4:18:e2:0f:4a:6b:8e:45:6e:90:
         62:e1:ae:b4:e1:08:61:94:02:aa:8a:ed:72:d5:b0:2f:44:c0:
         85:7e:50:2d:34:5e:04:fa:8d:3f:69:d6:99:ab:b5:80:39:16:
         79:80:c5:f7:68:44:5a:0a:c3:0c:01:f3:55:af:3b:f3:ad:74:
         c8:2e:78:20:2c:f0:10:2d:73:92:93:8a:fa:88:41:0d:82:f3:
         0b:2b:61:eb:6a:a3:a6:f8:10:1b:5f:48:13:dc:6c:72:f3:ce:
         73:c5:4d:95:61:b2:c3:65:03:6c:e5:9d:a6:a9:1a:bd:8c:76:
         80:a9:d0:cb:78:e3:7d:d8:84:75:a4:5c:dd:f6:c0:de:5b:52:
         a4:84:fa:45:80:98:90:2a:61:1b:9b:a2:c1:65:15:f3:a8:d7:
         32:97:62:a6:01:03:b8:21:56:9c:1d:a0:ac:a2:d6:6e:a4:37:
         d9:43:df:86:f4:43:d1:0a:cc:43:99:2b:c1:ef:e3:86:d6:b5:
         35:8c:f3:f1:50:fe:a0:a1:6a:c4:13:e6:8c:42:67:50:12:f1:
         84:f7:6f:de:b1:56:3d:c1
-----BEGIN CERTIFICATE-----
MIIE8TCCAtmgAwIBAgICEBEwDQYJKoZIhvcNAQELBQAwZjFDMEEGA1UECgw6RCZP
IFRydXN0d29ydGggQ2VydGlmaWNhdGVzIC0gIlRydXN0IFVzIEZvciBZb3VyIFNl
Y3VyaXR5IjEfMB0GA1UEAwwWQ0EgZm9yIHRscy1vLW1hdGljLmNvbTAeFw0xNTAz
MDExOTI4MjZaFw0xNjAyMjkxOTI4MjZaMEwxKjAoBgNVBAoMIUx1Y3kgSW4gdGhl
IFNreSB3aXRoIENlcnRpZmljYXRlczEeMBwGA1UEAwwVdGVzdDMudGxzLW8tbWF0
aWMuY29tMIIBIjANBgkqhkiG9w0BAQEFAAOCAQ8AMIIBCgKCAQEApEsKwbRArVY7
i7FQ1yamlXkqHVMNuCwF/+59g0E0OcgZPm1/c5WWGXZgCDgo7Zd+nvtmFvL5AcE5
N42JddhGGCIBOdH080mDqavtxYz+twCO+O5Ukb6+0G68z/sLReNN1+E8mHkHQMhD
lAfZ7sthaszM6VlChhI5bec4JbhVEAOuyACgSy0f85KW7pbNgC7d/GBEGI6GqlMo
rCKpPbotlpYbE3Oui82KtGnhfBfUegL97A8hSfVeeVeVcXSSCC6/IMj7LtpTPJ1J
bfLO9DCajwmd9mhubLJ64gzRUXa2LsIFuf2+/YznjuHJSNzPMqWUEfUtk/TZx3cC
1k11lNwLCwIDAQABo4HCMIG/MAkGA1UdEwQCMAAwEwYDVR0lBAwwCgYIKwYBBQUH
AwEwOgYJYIZIAYb4QgENBC0WK1RMUy1PLU1hdGljIE5vIFZhbGlkYXRpb24gQ2Vy
dGlmaWNhdGUg8J+SsCAwHQYDVR0OBBYEFPN1zW20/i2BMTh6iP7PERuOWIhLMB8G
A1UdIwQYMBaAFATWohoA2l4XiM8xxsqho9P3n3sqMCEGA1UdEQQaMBiCFnRlc3Qz
LnRscy1vLW1hdGljLm51bGwwDQYJKoZIhvcNAQELBQADggIBAHl4iwt/43u6xivT
LEI0jEN45STXGHo55ig9qaDFG80K+dOT9dTLRzLct2i8MPsRrV8ai5WY17ByCckz
o375tw0i9AWZ9DYey0/iyUMj1Iuj6gxh6Tkt4YC1QG8SKnd6vknrojuhBnEKCL8p
NPZ0cP2/80tc7363pr2O4Tw2MF2h3c5PS8wacPzZjVIb8wrPJ1TnvaEibwWUJcIN
syOhKry4Gd4/mPUjjD1RzfnIsLoQWzOchPhw8y15ItTXIkcArkbyz/gMph9fpcrC
EHklO2NpLObZaLUxf3iTn7HuwpKsAO0HCpaMFSMNDkx4mqOrOV/273bo3v/DpMQH
QyJTB8UBB5j8cbsl83+8ZZwBtYwGGY7qRXNIZ9ioaRG2n+DSuBgOEtRvsV5CtBji
D0prjkVukGLhrrThCGGUAqqK7XLVsC9EwIV+UC00XgT6jT9p1pmrtYA5FnmAxfdo
RFoKwwwB81WvO/OtdMgueCAs8BAtc5KTivqIQQ2C8wsrYetqo6b4EBtfSBPcbHLz
znPFTZVhssNlA2zlnaapGr2MdoCp0Mt4433YhHWkXN32wN5bUqSE+kWAmJAqYRub
osFlFfOo1zKXYqYBA7ghVpwdoKyi1m6kN9lD34b0Q9EKzEOZK8Hv44bWtTWM8/FQ
/qChasQT5oxCZ1AS8YT3b96xVj3B
-----END CERTIFICATE-----
