Certificate:
    Data:
        Version: 3 (0x2)
        Serial Number: 4126 (0x101e)
    Signature Algorithm: md5WithRSAEncryption
        Issuer: O=D&O TLS-O-MATIC CERTIFICATE AUTHORITY AB, CN=tls-o-matic.com
        Validity
            Not Before: Feb 15 18:40:38 2015 GMT
            Not After : Feb 15 18:40:38 2016 GMT
        Subject: O=MD5 was good enough in the 90's, CN=test9.tls-o-matic.com
        Subject Public Key Info:
            Public Key Algorithm: rsaEncryption
                Public-Key: (512 bit)
                Modulus:
                    00:c7:3e:d8:41:57:4a:44:e1:4f:89:96:a5:79:fa:
                    f6:f1:b7:c1:34:39:86:0c:69:4f:6e:2b:df:d0:cf:
                    80:9d:14:c0:72:df:ef:96:12:bd:7c:c5:e3:6b:74:
                    2d:a8:4b:a4:cf:5c:f4:44:f9:df:1a:c7:68:95:b6:
                    91:e3:05:d4:91
                Exponent: 65537 (0x10001)
        X509v3 extensions:
            X509v3 Basic Constraints: 
                CA:FALSE
            X509v3 Extended Key Usage: 
                TLS Web Server Authentication
            Netscape Comment: 
                TLS-O-Matic No Validation Certificate 💰 
            X509v3 Subject Key Identifier: 
                A3:54:CC:F7:B5:1C:C2:EC:61:EB:BB:B5:79:BB:F7:A9:CA:17:6C:63
            X509v3 Authority Key Identifier: 
                keyid:1D:6D:58:5B:49:3A:CC:00:2B:22:20:40:42:56:DD:C7:EB:B2:73:45

            X509v3 Subject Alternative Name: 
                DNS:tls-o-matic.com
    Signature Algorithm: md5WithRSAEncryption
         0b:90:e9:be:8c:81:22:8a:e6:58:a4:a7:c1:0b:28:29:90:e0:
         62:d6:a1:73:a4:60:bb:d8:b1:4c:0c:c1:80:5f:54:0e:0c:96:
         5c:ad:9d:75:59:3b:fe:99:b2:6c:13:c3:98:42:90:66:4f:6b:
         9e:af:a0:d2:e5:cb:46:5b:f8:3c:29:5e:f2:4e:dd:69:04:27:
         7c:0e:43:e5:d5:72:66:07:4d:d3:9c:f7:49:4b:90:7d:34:80:
         5a:6b:09:1c:9c:55:23:29:0a:09:cd:16:43:ad:83:b8:dd:55:
         03:92:d4:a0:a8:e3:5a:a2:2c:19:3f:14:3b:0c:35:a0:0f:01:
         7a:f1:c7:62:4f:28:dc:d1:4b:78:f8:0c:c9:90:81:1d:ce:e6:
         a6:1e:76:47:2a:7f:a6:5a:0b:d9:4b:c8:a9:1d:a8:6b:6a:48:
         b4:55:2a:a4:06:22:ca:2e:c2:49:d1:aa:14:93:c6:96:30:0d:
         2c:6f:5e:12:69:d4:ff:4d:d3:ee:35:c5:57:3b:91:2a:70:57:
         b5:3d:35:5b:a7:a5:52:48:e1:68:f6:c9:3d:55:05:cc:a3:91:
         37:ee:1c:23:12:de:b5:54:48:1e:9c:dc:d7:c9:c4:fd:8f:80:
         bb:c5:a4:7c:12:c3:8c:6c:2c:1e:d5:ae:7d:b9:f3:67:0a:32:
         07:22:9a:d3
-----BEGIN CERTIFICATE-----
MIIDBzCCAe+gAwIBAgICEB4wDQYJKoZIhvcNAQEEBQAwTTExMC8GA1UEChQoRCZP
IFRMUy1PLU1BVElDIENFUlRJRklDQVRFIEFVVEhPUklUWSBBQjEYMBYGA1UEAxMP
dGxzLW8tbWF0aWMuY29tMB4XDTE1MDIxNTE4NDAzOFoXDTE2MDIxNTE4NDAzOFow
SjEoMCYGA1UECgwfTUQ1IHdhcyBnb29kIGVub3VnaCBpbiB0aGUgOTAnczEeMBwG
A1UEAwwVdGVzdDkudGxzLW8tbWF0aWMuY29tMFwwDQYJKoZIhvcNAQEBBQADSwAw
SAJBAMc+2EFXSkThT4mWpXn69vG3wTQ5hgxpT24r39DPgJ0UwHLf75YSvXzF42t0
LahLpM9c9ET53xrHaJW2keMF1JECAwEAAaOBuzCBuDAJBgNVHRMEAjAAMBMGA1Ud
JQQMMAoGCCsGAQUFBwMBMDoGCWCGSAGG+EIBDQQtFitUTFMtTy1NYXRpYyBObyBW
YWxpZGF0aW9uIENlcnRpZmljYXRlIPCfkrAgMB0GA1UdDgQWBBSjVMz3tRzC7GHr
u7V5u/epyhdsYzAfBgNVHSMEGDAWgBQdbVhbSTrMACsiIEBCVt3H67JzRTAaBgNV
HREEEzARgg90bHMtby1tYXRpYy5jb20wDQYJKoZIhvcNAQEEBQADggEBAAuQ6b6M
gSKK5likp8ELKCmQ4GLWoXOkYLvYsUwMwYBfVA4MllytnXVZO/6ZsmwTw5hCkGZP
a56voNLly0Zb+DwpXvJO3WkEJ3wOQ+XVcmYHTdOc90lLkH00gFprCRycVSMpCgnN
FkOtg7jdVQOS1KCo41qiLBk/FDsMNaAPAXrxx2JPKNzRS3j4DMmQgR3O5qYedkcq
f6ZaC9lLyKkdqGtqSLRVKqQGIsouwknRqhSTxpYwDSxvXhJp1P9N0+41xVc7kSpw
V7U9NVunpVJI4Wj2yT1VBcyjkTfuHCMS3rVUSB6c3NfJxP2PgLvFpHwSw4xsLB7V
rn2582cKMgcimtM=
-----END CERTIFICATE-----
