Certificate:
    Data:
        Version: 3 (0x2)
        Serial Number: 4134 (0x1026)
    Signature Algorithm: sha256WithRSAEncryption
        Issuer: O=TLS-O-Matic Intermediate CA 1, CN=TLS-o-matic-intermediate-1
        Validity
            Not Before: Feb 21 14:34:00 2015 GMT
            Not After : Feb 21 14:34:00 2016 GMT
        Subject: O=Funny Frog API services for hot dog distribution and car wash, CN=test15a.tls-o-matic.com
        Subject Public Key Info:
            Public Key Algorithm: rsaEncryption
                Public-Key: (2048 bit)
                Modulus:
                    00:e7:24:18:4a:f7:63:4f:f6:47:b0:e8:44:68:18:
                    bc:9b:cf:ce:c6:32:26:e0:c1:90:66:f7:8b:36:57:
                    44:d0:a3:a3:67:c0:be:3a:c7:94:ea:5d:c4:d8:79:
                    35:02:04:97:4d:90:a7:7b:d7:8d:70:e4:5e:dd:86:
                    6e:74:91:e2:7c:84:71:97:6d:26:52:ac:f5:e4:59:
                    72:90:82:2d:78:ba:e3:34:0b:01:f0:c6:ec:fc:5a:
                    7d:34:93:09:d8:bc:b8:fe:b8:d7:06:35:ec:95:84:
                    65:d5:3b:e5:a1:22:a6:4f:ac:6b:ee:1d:2d:9c:b7:
                    54:1c:7e:6d:21:c2:44:9a:1a:62:3e:56:a3:fb:75:
                    5c:c5:f3:c2:c7:e0:b9:f5:cf:b1:45:ef:80:76:be:
                    d4:c0:90:25:84:e5:ff:69:a0:a6:b5:37:e3:88:52:
                    c6:ab:c4:1b:ab:1a:00:2a:5a:2f:b3:e0:d3:51:42:
                    f9:7e:9d:20:58:9e:ac:76:b8:c0:3b:88:e1:d9:84:
                    61:97:8c:8d:e7:1a:8d:01:7e:82:1c:a2:bf:05:35:
                    c6:3d:f9:7e:39:7d:e0:70:9b:ca:70:35:92:3c:7b:
                    ec:3e:5a:62:44:60:5e:0d:d8:07:47:75:77:37:06:
                    c9:c7:5e:fe:e6:01:d6:40:a7:32:78:f2:61:c6:c3:
                    1c:d5
                Exponent: 65537 (0x10001)
        X509v3 extensions:
            X509v3 Basic Constraints: 
                CA:FALSE
            X509v3 Extended Key Usage: 
                TLS Web Server Authentication
            Netscape Comment: 
                TLS-O-Matic No Validation Certificate 💰 
            X509v3 Subject Key Identifier: 
                0D:D0:CC:47:4F:D9:5B:20:FD:BD:EC:89:56:BF:38:42:FF:47:6F:CA
            X509v3 Authority Key Identifier: 
                keyid:3C:8D:0C:2C:72:26:28:A0:65:30:77:82:9E:A9:A3:A7:E9:24:F2:B5

            X509v3 Subject Alternative Name: 
                email:info@tls-o-matic.com
    Signature Algorithm: sha256WithRSAEncryption
         19:c6:b9:2a:48:bb:81:cb:00:fd:7f:39:6e:d3:79:07:1c:1d:
         05:35:33:a9:7e:bf:a0:f6:9e:20:6b:35:b8:81:f9:bd:c8:e5:
         65:90:f4:dd:c8:33:43:6a:7b:c8:a6:78:e4:ae:30:6a:30:c7:
         b1:39:12:77:8a:c5:f7:a3:d4:12:94:32:78:e6:ed:b5:81:e8:
         72:93:d7:88:b4:44:05:aa:ff:18:de:08:c8:b3:88:bb:33:2f:
         a4:c6:bc:95:06:48:5e:14:5a:d9:c4:a9:34:ba:a1:07:15:e5:
         6c:87:b7:5c:e5:e9:5c:02:f6:23:e1:a0:35:33:51:45:d2:dd:
         c4:ba:67:9e:bd:b3:9e:27:8f:b6:36:31:55:ed:cc:6d:6b:a1:
         05:ca:05:54:c8:be:b9:c8:96:cc:26:1d:79:a3:ad:c6:c2:b9:
         8f:c0:b4:b4:f3:54:40:0c:97:dd:d2:34:37:e2:39:6e:de:cc:
         64:2c:c7:53:a4:b1:32:b2:2e:c7:ba:d1:f9:b1:6b:57:67:9f:
         27:8e:a2:e9:65:dc:72:c3:b7:ae:d8:2f:ec:b9:44:d5:bc:4e:
         3d:f0:9d:ae:dc:85:c1:4c:7d:5a:55:81:00:04:9d:00:ef:81:
         7d:ca:73:68:13:e6:39:d7:3d:6b:c6:dc:c3:c1:0f:46:89:f7:
         0e:95:ee:ae
-----BEGIN CERTIFICATE-----
MIID9DCCAtygAwIBAgICECYwDQYJKoZIhvcNAQELBQAwTTEmMCQGA1UECgwdVExT
LU8tTWF0aWMgSW50ZXJtZWRpYXRlIENBIDExIzAhBgNVBAMMGlRMUy1vLW1hdGlj
LWludGVybWVkaWF0ZS0xMB4XDTE1MDIyMTE0MzQwMFoXDTE2MDIyMTE0MzQwMFow
ajFGMEQGA1UECgw9RnVubnkgRnJvZyBBUEkgc2VydmljZXMgZm9yIGhvdCBkb2cg
ZGlzdHJpYnV0aW9uIGFuZCBjYXIgd2FzaDEgMB4GA1UEAwwXdGVzdDE1YS50bHMt
by1tYXRpYy5jb20wggEiMA0GCSqGSIb3DQEBAQUAA4IBDwAwggEKAoIBAQDnJBhK
92NP9kew6ERoGLybz87GMibgwZBm94s2V0TQo6NnwL46x5TqXcTYeTUCBJdNkKd7
141w5F7dhm50keJ8hHGXbSZSrPXkWXKQgi14uuM0CwHwxuz8Wn00kwnYvLj+uNcG
NeyVhGXVO+WhIqZPrGvuHS2ct1Qcfm0hwkSaGmI+VqP7dVzF88LH4Ln1z7FF74B2
vtTAkCWE5f9poKa1N+OIUsarxBurGgAqWi+z4NNRQvl+nSBYnqx2uMA7iOHZhGGX
jI3nGo0BfoIcor8FNcY9+X45feBwm8pwNZI8e+w+WmJEYF4N2AdHdXc3BsnHXv7m
AdZApzJ48mHGwxzVAgMBAAGjgcAwgb0wCQYDVR0TBAIwADATBgNVHSUEDDAKBggr
BgEFBQcDATA6BglghkgBhvhCAQ0ELRYrVExTLU8tTWF0aWMgTm8gVmFsaWRhdGlv
biBDZXJ0aWZpY2F0ZSDwn5KwIDAdBgNVHQ4EFgQUDdDMR0/ZWyD9veyJVr84Qv9H
b8owHwYDVR0jBBgwFoAUPI0MLHImKKBlMHeCnqmjp+kk8rUwHwYDVR0RBBgwFoEU
aW5mb0B0bHMtby1tYXRpYy5jb20wDQYJKoZIhvcNAQELBQADggEBABnGuSpIu4HL
AP1/OW7TeQccHQU1M6l+v6D2niBrNbiB+b3I5WWQ9N3IM0Nqe8imeOSuMGowx7E5
EneKxfej1BKUMnjm7bWB6HKT14i0RAWq/xjeCMiziLszL6TGvJUGSF4UWtnEqTS6
oQcV5WyHt1zl6VwC9iPhoDUzUUXS3cS6Z569s54nj7Y2MVXtzG1roQXKBVTIvrnI
lswmHXmjrcbCuY/AtLTzVEAMl93SNDfiOW7ezGQsx1OksTKyLse60fmxa1dnnyeO
oull3HLDt67YL+y5RNW8Tj3wna7chcFMfVpVgQAEnQDvgX3Kc2gT5jnXPWvG3MPB
D0aJ9w6V7q4=
-----END CERTIFICATE-----
