Certificate:
    Data:
        Version: 3 (0x2)
        Serial Number: 4139 (0x102b)
    Signature Algorithm: sha256WithRSAEncryption
        Issuer: O=D&O TLS-O-MATIC CERTIFICATE AUTHORITY AB, CN=tls-o-matic.com
        Validity
            Not Before: Feb 21 16:28:37 2015 GMT
            Not After : Feb 21 16:28:37 2016 GMT
        Subject: O=We Challenge You, Inc, CN=test8.tls-o-matic.com
        Subject Public Key Info:
            Public Key Algorithm: rsaEncryption
                Public-Key: (2048 bit)
                Modulus:
                    00:9c:7f:33:ca:47:e8:b7:1b:b7:d4:b6:e6:bd:18:
                    e2:03:f4:b6:98:94:37:2e:21:47:4c:61:5f:8b:30:
                    3d:0c:e4:1c:41:c0:1c:69:13:7d:3f:5a:ac:3c:f6:
                    3b:ac:6c:da:16:1d:91:2f:23:9d:6e:c6:b5:a5:56:
                    09:93:cf:24:df:61:6e:ae:d4:a0:53:c7:74:f0:59:
                    c1:3f:0e:4b:ba:43:82:b0:d7:5c:11:6f:e1:5e:23:
                    96:a9:91:70:90:0e:f7:c4:1e:dd:89:63:d2:e1:a5:
                    99:91:f8:b5:2f:62:95:e1:da:05:7b:fe:a2:fd:99:
                    a2:ca:e0:af:66:14:90:b8:47:a4:60:d8:96:2b:65:
                    da:ff:a0:22:11:fc:be:c3:ce:f7:62:08:1a:9b:3a:
                    70:8f:09:a8:24:c0:da:ea:ed:13:83:e3:93:13:8d:
                    c7:c8:e9:2a:73:63:2e:5d:4c:64:19:55:32:4f:9c:
                    df:8d:7a:36:b5:07:a1:db:79:8c:a1:5b:aa:ad:70:
                    72:07:8d:0f:18:2f:0a:73:6b:ba:f3:0d:62:a1:af:
                    62:f5:32:45:76:47:36:04:04:d4:ba:a9:c2:93:71:
                    8c:b2:48:e7:30:8e:30:77:85:53:c8:7e:41:0c:22:
                    1b:ab:5a:8b:6c:63:fa:c7:8c:e7:ed:1d:1b:af:0f:
                    ec:45
                Exponent: 65537 (0x10001)
        X509v3 extensions:
            X509v3 Basic Constraints: 
                CA:FALSE
            X509v3 Extended Key Usage: 
                TLS Web Server Authentication
            Netscape Comment: 
                TLS-O-Matic No Validation Certificate 💰 
            X509v3 Subject Key Identifier: 
                91:92:4E:32:6B:D4:5C:4E:7A:DE:AC:83:77:F0:63:1D:82:1A:8D:4E
            X509v3 Authority Key Identifier: 
                keyid:1D:6D:58:5B:49:3A:CC:00:2B:22:20:40:42:56:DD:C7:EB:B2:73:45

            X509v3 Subject Alternative Name: 
                DNS:tls-o-matic.com, DNS:test8.tls-o-matic.com, URI:sip:info@tls-o-matic.com
    Signature Algorithm: sha256WithRSAEncryption
         4d:d7:cb:7d:ec:2d:f4:6e:8b:2e:04:cb:8f:8b:f5:16:6a:2a:
         43:28:60:3a:f0:b7:08:e9:92:8b:e4:0a:ad:83:a4:c8:4d:15:
         f1:3a:40:98:85:94:bb:cd:32:62:2d:e2:af:1b:3f:a7:d4:f5:
         ce:b0:de:01:86:1e:47:71:dc:5b:87:2b:82:98:d2:39:a6:56:
         0c:06:f9:29:82:68:63:6a:8b:0a:7e:2e:7a:fb:a1:d8:cd:18:
         27:7d:98:a7:50:76:28:86:44:62:b6:53:15:95:cc:de:ff:7e:
         41:51:2b:03:5f:c0:97:3b:28:e2:67:47:19:31:eb:c9:90:71:
         2e:18:5a:27:4b:b5:6b:1e:17:f7:5b:13:09:8e:06:31:08:fb:
         65:da:f9:d5:4d:a0:3f:5a:ab:63:b4:c1:ec:ea:b4:a7:db:42:
         ae:cd:84:75:f5:e8:50:35:fa:27:27:79:28:4a:c8:27:fc:92:
         5d:c2:5a:6f:d6:f6:d9:05:46:10:09:70:c2:5b:c9:91:98:54:
         85:2a:fb:44:b1:0b:59:95:37:e5:cb:c5:5b:a7:ae:82:01:15:
         a8:52:b3:eb:c5:85:b2:db:fc:e3:19:7b:81:72:cd:f7:d0:1f:
         79:e6:81:cf:78:37:6f:4e:0f:7b:a4:ac:9d:bb:d4:70:90:e6:
         7c:0c:3e:ff
-----BEGIN CERTIFICATE-----
MIID9jCCAt6gAwIBAgICECswDQYJKoZIhvcNAQELBQAwTTExMC8GA1UEChQoRCZP
IFRMUy1PLU1BVElDIENFUlRJRklDQVRFIEFVVEhPUklUWSBBQjEYMBYGA1UEAxMP
dGxzLW8tbWF0aWMuY29tMB4XDTE1MDIyMTE2MjgzN1oXDTE2MDIyMTE2MjgzN1ow
QDEeMBwGA1UECgwVV2UgQ2hhbGxlbmdlIFlvdSwgSW5jMR4wHAYDVQQDDBV0ZXN0
OC50bHMtby1tYXRpYy5jb20wggEiMA0GCSqGSIb3DQEBAQUAA4IBDwAwggEKAoIB
AQCcfzPKR+i3G7fUtua9GOID9LaYlDcuIUdMYV+LMD0M5BxBwBxpE30/Wqw89jus
bNoWHZEvI51uxrWlVgmTzyTfYW6u1KBTx3TwWcE/Dku6Q4Kw11wRb+FeI5apkXCQ
DvfEHt2JY9LhpZmR+LUvYpXh2gV7/qL9maLK4K9mFJC4R6Rg2JYrZdr/oCIR/L7D
zvdiCBqbOnCPCagkwNrq7ROD45MTjcfI6SpzYy5dTGQZVTJPnN+Neja1B6HbeYyh
W6qtcHIHjQ8YLwpza7rzDWKhr2L1MkV2RzYEBNS6qcKTcYyySOcwjjB3hVPIfkEM
IhurWotsY/rHjOftHRuvD+xFAgMBAAGjgewwgekwCQYDVR0TBAIwADATBgNVHSUE
DDAKBggrBgEFBQcDATA6BglghkgBhvhCAQ0ELRYrVExTLU8tTWF0aWMgTm8gVmFs
aWRhdGlvbiBDZXJ0aWZpY2F0ZSDwn5KwIDAdBgNVHQ4EFgQUkZJOMmvUXE563qyD
d/BjHYIajU4wHwYDVR0jBBgwFoAUHW1YW0k6zAArIiBAQlbdx+uyc0UwSwYDVR0R
BEQwQoIPdGxzLW8tbWF0aWMuY29tghV0ZXN0OC50bHMtby1tYXRpYy5jb22GGHNp
cDppbmZvQHRscy1vLW1hdGljLmNvbTANBgkqhkiG9w0BAQsFAAOCAQEATdfLfewt
9G6LLgTLj4v1FmoqQyhgOvC3COmSi+QKrYOkyE0V8TpAmIWUu80yYi3irxs/p9T1
zrDeAYYeR3HcW4crgpjSOaZWDAb5KYJoY2qLCn4uevuh2M0YJ32Yp1B2KIZEYrZT
FZXM3v9+QVErA1/Alzso4mdHGTHryZBxLhhaJ0u1ax4X91sTCY4GMQj7Zdr51U2g
P1qrY7TB7Oq0p9tCrs2EdfXoUDX6Jyd5KErIJ/ySXcJab9b22QVGEAlwwlvJkZhU
hSr7RLELWZU35cvFW6euggEVqFKz68WFstv84xl7gXLN99AfeeaBz3g3b04Pe6Ss
nbvUcJDmfAw+/w==
-----END CERTIFICATE-----
