Certificate:
    Data:
        Version: 3 (0x2)
        Serial Number: 4124 (0x101c)
    Signature Algorithm: sha256WithRSAEncryption
        Issuer: O=Intermediate 1 tls-o-matic.com, CN=TLS-o-matic-intermediate-1
        Validity
            Not Before: Mar  1 19:51:16 2015 GMT
            Not After : Feb 29 19:51:16 2016 GMT
        Subject: O=Give it UP, CN=test10.tls-o-matic.com
        Subject Public Key Info:
            Public Key Algorithm: rsaEncryption
                Public-Key: (2048 bit)
                Modulus:
                    00:d0:92:d6:fa:44:3f:c7:2f:c7:9e:41:ee:b2:a2:
                    89:b0:48:ca:59:8a:65:f1:cb:0a:ff:2d:a8:61:72:
                    7b:63:e1:90:10:fa:37:d5:9a:0c:c1:10:51:ff:f6:
                    5e:fd:0d:53:4e:ea:a2:1a:77:3a:4b:60:3d:50:f9:
                    0c:0c:4a:d2:70:e9:fc:80:2f:58:82:ea:e0:35:67:
                    56:d7:1a:f8:22:e1:23:90:d0:d5:66:9f:df:a7:54:
                    d4:eb:45:84:0b:da:82:08:17:7a:1b:7c:b8:d8:3a:
                    f3:43:81:15:f1:2c:e8:01:3f:75:23:d4:c9:ad:e8:
                    63:da:c6:bf:3a:5e:24:41:b7:f2:3f:64:1f:ac:16:
                    86:e4:d9:df:ce:e9:2c:23:cc:51:cd:78:cb:5e:71:
                    4a:bb:58:e9:d2:4c:e1:af:aa:ae:d0:df:47:c8:6f:
                    4f:78:a7:3e:d1:7e:03:93:d6:8c:2b:0b:ff:88:c2:
                    1b:92:8b:60:e5:06:59:ee:7e:90:c6:d1:82:1f:c4:
                    0b:90:ca:c5:c0:0a:20:54:35:6d:11:bd:3f:03:55:
                    d5:6c:e9:a2:3f:35:61:bc:f4:69:5f:5b:38:17:ba:
                    34:0c:5b:b5:f0:3c:a3:f0:39:5c:9f:dc:df:22:12:
                    29:8a:35:41:ef:3d:63:27:83:e2:d6:49:6a:fc:1e:
                    49:c3
                Exponent: 65537 (0x10001)
        X509v3 extensions:
            X509v3 Basic Constraints: 
                CA:FALSE
            X509v3 Extended Key Usage: 
                TLS Web Server Authentication
            Netscape Comment: 
                TLS-O-Matic No Validation Certificate 💰 
            X509v3 Subject Key Identifier: 
                AF:6C:C8:06:07:D9:E5:B5:F6:D4:31:4B:FA:0A:69:1B:03:63:C3:F4
            X509v3 Authority Key Identifier: 
                keyid:8F:6B:1F:E7:9D:35:5C:3C:D4:EA:1B:79:A5:83:AD:FE:97:9A:8B:D1

            X509v3 Subject Alternative Name: 
                email:info@tls-o-matic.com
    Signature Algorithm: sha256WithRSAEncryption
         61:bf:94:5f:86:4e:73:1f:99:75:10:2d:7f:aa:d8:22:08:7f:
         bf:59:ce:35:b1:7e:4d:2f:01:bd:60:0d:f2:5a:e4:02:d9:8f:
         63:64:b4:7f:74:5c:7a:cf:0f:ae:0d:dd:87:6f:5e:dc:da:9b:
         4c:80:8f:8b:c3:e4:95:a9:1c:fc:ee:40:3b:a9:a1:19:fb:6e:
         49:37:80:2c:95:f7:ca:a1:28:c9:30:46:e3:0e:5c:23:21:59:
         a6:c9:31:f8:1c:03:7e:98:21:53:7e:d2:39:9c:fd:3e:72:ad:
         81:85:53:47:be:46:3b:45:4d:bd:18:b2:85:d3:ec:9f:34:ed:
         4f:64:e5:ef:d4:df:f7:6d:2b:be:d0:cf:35:99:78:1d:fe:74:
         ad:ea:b0:56:2c:1e:52:79:41:4a:d6:ee:76:64:8b:af:55:d5:
         61:f0:a7:51:a6:35:7b:d8:67:7c:2e:25:bd:49:f0:d6:03:be:
         a5:9e:53:ad:bd:c3:d5:0f:7a:1b:5c:d5:fb:ef:c2:06:18:63:
         5d:e9:b5:ed:04:bc:93:06:be:18:ee:1c:11:ec:09:3b:55:f7:
         6b:cb:99:ae:16:ce:37:47:16:cb:13:9b:dd:7e:31:d4:b9:e5:
         7a:0d:26:8d:81:06:4c:aa:46:65:97:f7:f1:44:16:af:df:1b:
         42:5c:55:05
-----BEGIN CERTIFICATE-----
MIIDwTCCAqmgAwIBAgICEBwwDQYJKoZIhvcNAQELBQAwTjEnMCUGA1UECgweSW50
ZXJtZWRpYXRlIDEgdGxzLW8tbWF0aWMuY29tMSMwIQYDVQQDDBpUTFMtby1tYXRp
Yy1pbnRlcm1lZGlhdGUtMTAeFw0xNTAzMDExOTUxMTZaFw0xNjAyMjkxOTUxMTZa
MDYxEzARBgNVBAoMCkdpdmUgaXQgVVAxHzAdBgNVBAMMFnRlc3QxMC50bHMtby1t
YXRpYy5jb20wggEiMA0GCSqGSIb3DQEBAQUAA4IBDwAwggEKAoIBAQDQktb6RD/H
L8eeQe6yoomwSMpZimXxywr/Lahhcntj4ZAQ+jfVmgzBEFH/9l79DVNO6qIadzpL
YD1Q+QwMStJw6fyAL1iC6uA1Z1bXGvgi4SOQ0NVmn9+nVNTrRYQL2oIIF3obfLjY
OvNDgRXxLOgBP3Uj1Mmt6GPaxr86XiRBt/I/ZB+sFobk2d/O6SwjzFHNeMtecUq7
WOnSTOGvqq7Q30fIb094pz7RfgOT1owrC/+IwhuSi2DlBlnufpDG0YIfxAuQysXA
CiBUNW0RvT8DVdVs6aI/NWG89GlfWzgXujQMW7XwPKPwOVyf3N8iEimKNUHvPWMn
g+LWSWr8HknDAgMBAAGjgcAwgb0wCQYDVR0TBAIwADATBgNVHSUEDDAKBggrBgEF
BQcDATA6BglghkgBhvhCAQ0ELRYrVExTLU8tTWF0aWMgTm8gVmFsaWRhdGlvbiBD
ZXJ0aWZpY2F0ZSDwn5KwIDAdBgNVHQ4EFgQUr2zIBgfZ5bX21DFL+gppGwNjw/Qw
HwYDVR0jBBgwFoAUj2sf5501XDzU6ht5pYOt/peai9EwHwYDVR0RBBgwFoEUaW5m
b0B0bHMtby1tYXRpYy5jb20wDQYJKoZIhvcNAQELBQADggEBAGG/lF+GTnMfmXUQ
LX+q2CIIf79ZzjWxfk0vAb1gDfJa5ALZj2NktH90XHrPD64N3YdvXtzam0yAj4vD
5JWpHPzuQDupoRn7bkk3gCyV98qhKMkwRuMOXCMhWabJMfgcA36YIVN+0jmc/T5y
rYGFU0e+RjtFTb0YsoXT7J807U9k5e/U3/dtK77QzzWZeB3+dK3qsFYsHlJ5QUrW
7nZki69V1WHwp1GmNXvYZ3wuJb1J8NYDvqWeU629w9UPehtc1fvvwgYYY13pte0E
vJMGvhjuHBHsCTtV92vLma4WzjdHFssTm91+MdS55XoNJo2BBkyqRmWX9/FEFq/f
G0JcVQU=
-----END CERTIFICATE-----
