Certificate:
    Data:
        Version: 3 (0x2)
        Serial Number: 4134 (0x1026)
    Signature Algorithm: sha256WithRSAEncryption
        Issuer: O=Intermediate 1 tls-o-matic.com, CN=TLS-o-matic-intermediate-1
        Validity
            Not Before: Mar  3 20:39:53 2015 GMT
            Not After : Mar  2 20:39:53 2016 GMT
        Subject: O=Give it UP, CN=test10.tls-o-matic.com
        Subject Public Key Info:
            Public Key Algorithm: rsaEncryption
                Public-Key: (2048 bit)
                Modulus:
                    00:a8:40:d0:c4:03:79:5e:b2:55:c2:62:9c:1d:b8:
                    46:69:77:5c:e5:a7:cf:3d:fc:17:1a:39:98:04:ad:
                    f5:fa:02:2b:4d:a5:0e:29:ab:9d:51:14:5c:50:d0:
                    39:c7:42:9d:0f:3b:c7:14:c5:56:fa:62:fd:7d:7e:
                    60:b9:7b:98:fb:83:64:d1:06:15:c0:12:1d:1b:c6:
                    30:68:29:f6:ff:0b:ef:c0:bc:93:5d:a9:42:51:c1:
                    26:6b:94:02:da:ea:1f:dd:66:f9:12:87:ec:63:ce:
                    8a:3a:3c:64:f0:a6:80:1c:d4:ec:d0:58:5d:23:42:
                    2c:78:40:1f:e4:ab:df:4e:4d:ce:05:d0:c5:6d:61:
                    cf:ea:70:64:88:23:67:07:d2:1d:0e:8b:05:9b:44:
                    c2:33:2c:c6:3e:9e:82:eb:70:c8:f4:18:f5:b1:8b:
                    78:bf:7e:a9:8c:a1:54:82:2f:18:22:45:7d:de:52:
                    cf:39:7a:0c:84:97:f4:fe:cd:f9:bd:fd:7c:85:af:
                    d6:cb:47:3a:3b:ba:a2:e6:05:95:3e:07:e0:07:6d:
                    f7:13:44:73:76:6b:f4:e0:6d:1c:7e:c5:b3:6c:3a:
                    a6:3e:56:c4:e2:31:2f:95:66:ac:91:1c:f6:c9:51:
                    69:46:a5:dc:df:04:20:e8:4c:b6:24:28:d9:ba:7c:
                    b2:09
                Exponent: 65537 (0x10001)
        X509v3 extensions:
            X509v3 Basic Constraints: 
                CA:FALSE
            X509v3 Extended Key Usage: 
                TLS Web Server Authentication
            Netscape Comment: 
                TLS-O-Matic No Validation Certificate 💰 
            X509v3 Subject Key Identifier: 
                78:F3:72:EB:23:3B:B3:B4:4A:82:16:ED:3B:23:F2:F8:C0:74:3B:1D
            X509v3 Authority Key Identifier: 
                keyid:8F:6B:1F:E7:9D:35:5C:3C:D4:EA:1B:79:A5:83:AD:FE:97:9A:8B:D1

            X509v3 Subject Alternative Name: 
                email:info@tls-o-matic.com
    Signature Algorithm: sha256WithRSAEncryption
         27:bc:19:a8:10:b3:15:9e:19:8c:88:6b:ab:f7:eb:ef:9c:bc:
         a4:d6:9b:35:5f:9a:a4:e3:7b:fb:ef:eb:a6:46:ab:5b:fc:68:
         62:fe:86:41:2f:80:56:60:d7:4c:bc:48:49:ea:b2:53:ba:0c:
         52:3e:00:27:80:3b:1c:79:2a:36:2a:51:2a:73:a2:97:83:d7:
         2a:cc:e3:3b:df:36:da:fc:e6:a5:70:31:b7:0b:15:0b:df:64:
         ed:88:7e:c0:3a:e7:dd:ae:3f:45:74:6a:62:dc:d4:a0:ea:26:
         f3:a8:6a:cc:27:51:cd:57:0c:e3:29:4e:f2:23:aa:37:03:64:
         7c:2e:1f:d7:73:64:c8:9e:41:c1:f8:fc:35:60:80:3c:be:70:
         7f:20:94:62:79:da:3b:c9:c3:eb:1e:83:0e:d0:0f:ac:d3:78:
         28:fd:fc:6b:15:5c:06:fc:a7:3f:4e:3c:19:a7:bc:da:6f:9e:
         0f:15:0f:b6:d8:ae:9a:81:79:45:36:5a:bd:91:eb:28:cb:6a:
         49:ef:19:3b:10:e2:b7:09:0b:a0:7d:2e:10:82:96:b1:af:3a:
         b5:70:23:d0:71:1f:41:d5:1e:2a:d0:c1:75:e1:e9:fe:20:01:
         25:c7:5d:8b:6c:4f:51:cf:9a:f5:0d:a0:39:29:c1:99:64:e8:
         f1:3f:59:8b
-----BEGIN CERTIFICATE-----
MIIDwTCCAqmgAwIBAgICECYwDQYJKoZIhvcNAQELBQAwTjEnMCUGA1UECgweSW50
ZXJtZWRpYXRlIDEgdGxzLW8tbWF0aWMuY29tMSMwIQYDVQQDDBpUTFMtby1tYXRp
Yy1pbnRlcm1lZGlhdGUtMTAeFw0xNTAzMDMyMDM5NTNaFw0xNjAzMDIyMDM5NTNa
MDYxEzARBgNVBAoMCkdpdmUgaXQgVVAxHzAdBgNVBAMMFnRlc3QxMC50bHMtby1t
YXRpYy5jb20wggEiMA0GCSqGSIb3DQEBAQUAA4IBDwAwggEKAoIBAQCoQNDEA3le
slXCYpwduEZpd1zlp889/BcaOZgErfX6AitNpQ4pq51RFFxQ0DnHQp0PO8cUxVb6
Yv19fmC5e5j7g2TRBhXAEh0bxjBoKfb/C+/AvJNdqUJRwSZrlALa6h/dZvkSh+xj
zoo6PGTwpoAc1OzQWF0jQix4QB/kq99OTc4F0MVtYc/qcGSII2cH0h0OiwWbRMIz
LMY+noLrcMj0GPWxi3i/fqmMoVSCLxgiRX3eUs85egyEl/T+zfm9/XyFr9bLRzo7
uqLmBZU+B+AHbfcTRHN2a/TgbRx+xbNsOqY+VsTiMS+VZqyRHPbJUWlGpdzfBCDo
TLYkKNm6fLIJAgMBAAGjgcAwgb0wCQYDVR0TBAIwADATBgNVHSUEDDAKBggrBgEF
BQcDATA6BglghkgBhvhCAQ0ELRYrVExTLU8tTWF0aWMgTm8gVmFsaWRhdGlvbiBD
ZXJ0aWZpY2F0ZSDwn5KwIDAdBgNVHQ4EFgQUePNy6yM7s7RKghbtOyPy+MB0Ox0w
HwYDVR0jBBgwFoAUj2sf5501XDzU6ht5pYOt/peai9EwHwYDVR0RBBgwFoEUaW5m
b0B0bHMtby1tYXRpYy5jb20wDQYJKoZIhvcNAQELBQADggEBACe8GagQsxWeGYyI
a6v36++cvKTWmzVfmqTje/vv66ZGq1v8aGL+hkEvgFZg10y8SEnqslO6DFI+ACeA
Oxx5KjYqUSpzopeD1yrM4zvfNtr85qVwMbcLFQvfZO2IfsA6592uP0V0amLc1KDq
JvOoaswnUc1XDOMpTvIjqjcDZHwuH9dzZMieQcH4/DVggDy+cH8glGJ52jvJw+se
gw7QD6zTeCj9/GsVXAb8pz9OPBmnvNpvng8VD7bYrpqBeUU2Wr2R6yjLaknvGTsQ
4rcJC6B9LhCClrGvOrVwI9BxH0HVHirQwXXh6f4gASXHXYtsT1HPmvUNoDkpwZlk
6PE/WYs=
-----END CERTIFICATE-----
