Certificate:
    Data:
        Version: 3 (0x2)
        Serial Number: 4116 (0x1014)
    Signature Algorithm: sha256WithRSAEncryption
        Issuer: O=D&O Trustworth Certificates - "Trust Us For Your Security", CN=CA for tls-o-matic.com
        Validity
            Not Before: Dec 24 14:28:28 1963 GMT
            Not After : Dec 24 14:28:29 1963 GMT
        Subject: O=Soup and Barbecue Kitchen from the 60's, CN=test6.tls-o-matic.com
        Subject Public Key Info:
            Public Key Algorithm: rsaEncryption
                Public-Key: (2048 bit)
                Modulus:
                    00:bb:ea:5b:f1:1b:08:ec:f8:cd:40:dc:fd:41:85:
                    8c:66:e0:f2:ba:6f:3e:16:59:44:09:0f:8b:80:fc:
                    23:9d:b1:06:19:af:a8:76:87:2a:77:43:55:90:15:
                    d5:c8:f4:ce:83:57:c3:a3:df:37:32:07:02:99:c4:
                    e9:6f:73:33:62:31:ec:2b:d9:8e:8a:8b:9a:49:1b:
                    09:4d:8f:7b:0d:0a:d3:34:57:55:40:7c:79:67:8c:
                    3e:74:15:7c:af:a3:ea:c3:e0:da:d7:a4:54:48:f7:
                    20:44:ce:4d:23:a3:4c:b9:b8:ba:00:7a:20:ff:8a:
                    2e:e1:8e:59:2c:ae:49:75:5f:61:54:8a:d6:a1:fe:
                    c7:59:a8:fa:b7:ff:22:fa:db:18:5c:97:d8:3b:87:
                    3e:bd:93:28:5c:2f:b4:9e:60:54:6a:b8:c8:cb:5c:
                    ed:68:fb:78:33:24:e1:63:3f:42:87:81:98:bf:74:
                    b5:60:f3:69:de:d1:c4:c4:45:d6:f8:70:41:36:96:
                    fe:52:b3:61:09:c1:47:c5:f6:49:13:2a:4e:8f:bd:
                    ec:77:66:5c:21:91:0b:d8:45:8d:df:b5:d4:c5:d4:
                    ff:2a:bc:7c:75:ca:a1:6d:fd:b1:f3:b0:38:6a:6d:
                    01:e6:ee:81:5e:3e:b7:0d:5e:5b:db:31:d8:b6:2d:
                    b5:a3
                Exponent: 65537 (0x10001)
        X509v3 extensions:
            X509v3 Basic Constraints: 
                CA:FALSE
            X509v3 Extended Key Usage: 
                TLS Web Server Authentication
            Netscape Comment: 
                TLS-O-Matic No Validation Certificate 💰 
            X509v3 Subject Key Identifier: 
                38:57:34:A1:90:9F:14:AC:A8:0A:D8:83:A2:BA:EE:6C:6B:E2:41:8C
            X509v3 Authority Key Identifier: 
                keyid:04:D6:A2:1A:00:DA:5E:17:88:CF:31:C6:CA:A1:A3:D3:F7:9F:7B:2A

            X509v3 Subject Alternative Name: 
                DNS:test6.tls-o-matic.com
    Signature Algorithm: sha256WithRSAEncryption
         71:52:51:0d:a5:28:4e:a5:0f:f1:e8:f1:76:27:9d:32:87:f4:
         92:16:3b:4b:1a:df:a8:cd:91:af:33:dc:9f:c9:9c:19:a5:92:
         80:1d:f7:51:fb:70:e2:bb:fe:57:ed:bc:b2:90:8d:10:9d:61:
         4c:2a:cb:f8:a8:e9:44:5c:fa:9f:f5:bb:00:29:e2:d0:4f:1b:
         b9:9a:44:eb:fa:50:1d:91:a6:bf:65:2b:93:fd:b4:5a:90:65:
         a4:61:a5:ab:38:35:d5:79:88:e1:65:17:e7:26:fc:a0:06:f6:
         43:bb:92:9b:72:97:98:63:2e:7e:95:de:5b:ac:31:ae:fa:f9:
         bb:6e:1a:c9:6c:de:47:7b:a4:a9:6b:f9:f0:3d:68:32:e5:9a:
         37:7e:d5:55:b8:d3:e5:f7:1b:ff:d2:19:a0:4c:54:bd:9e:bb:
         22:c4:a8:60:87:f7:11:91:5f:35:e7:0c:fc:e1:63:48:1f:d6:
         7e:96:f2:98:3a:8f:5f:0b:32:f1:f0:23:1d:95:fd:6c:67:80:
         6d:e2:61:95:10:7f:3d:6e:fe:bd:6d:e5:1c:b7:43:86:1f:c8:
         21:cd:f4:35:97:1f:a4:33:ab:be:0d:77:2f:4e:05:cc:18:ff:
         89:28:c1:b3:49:0a:42:6d:b8:97:cc:08:78:4d:df:4f:98:41:
         f9:64:41:78:d4:19:00:b1:9b:91:96:d3:67:64:68:4a:bd:e1:
         cb:0b:2b:48:aa:f9:7c:f3:6d:ab:24:a7:2e:7b:2c:a8:2f:12:
         a3:e3:ee:d6:41:b0:fa:ee:8e:2f:5c:6b:4e:c3:f9:bd:be:a2:
         66:44:91:32:c2:db:fa:26:cb:fb:90:b3:e4:83:f3:b3:ca:dc:
         00:87:fe:5a:2b:e9:45:a9:42:40:a2:a5:12:eb:2e:44:c0:79:
         38:03:6b:99:d7:ab:21:3f:aa:21:ca:38:b3:f7:0e:d4:73:7b:
         86:08:cd:51:15:ff:99:1c:64:50:51:33:a2:95:c0:b1:9c:99:
         b7:df:ef:03:17:c2:c0:96:e5:21:ec:57:b0:17:cf:99:ea:cf:
         e4:c9:fa:2e:fc:9f:cf:8b:9d:23:6e:4a:d4:e0:a0:a4:2a:cf:
         cf:82:b5:e7:03:59:4b:25:15:53:5c:81:54:03:2b:90:01:54:
         35:e2:1e:47:16:a1:ea:15:37:ef:d1:98:8a:96:bc:a0:9d:ee:
         48:5f:ca:4f:6a:df:a6:f5:b4:66:5e:25:d0:e6:80:62:e9:6a:
         ed:59:69:51:bc:5a:fb:d1:88:d3:9f:b9:00:96:68:7b:d4:24:
         00:c0:d5:1f:98:90:c8:80:d5:42:8e:ff:a6:01:0f:73:22:27:
         28:99:de:06:13:43:77:27
-----BEGIN CERTIFICATE-----
MIIE9jCCAt6gAwIBAgICEBQwDQYJKoZIhvcNAQELBQAwZjFDMEEGA1UECgw6RCZP
IFRydXN0d29ydGggQ2VydGlmaWNhdGVzIC0gIlRydXN0IFVzIEZvciBZb3VyIFNl
Y3VyaXR5IjEfMB0GA1UEAwwWQ0EgZm9yIHRscy1vLW1hdGljLmNvbTAeFw02MzEy
MjQxNDI4MjhaFw02MzEyMjQxNDI4MjlaMFIxMDAuBgNVBAoMJ1NvdXAgYW5kIEJh
cmJlY3VlIEtpdGNoZW4gZnJvbSB0aGUgNjAnczEeMBwGA1UEAwwVdGVzdDYudGxz
LW8tbWF0aWMuY29tMIIBIjANBgkqhkiG9w0BAQEFAAOCAQ8AMIIBCgKCAQEAu+pb
8RsI7PjNQNz9QYWMZuDyum8+FllECQ+LgPwjnbEGGa+odocqd0NVkBXVyPTOg1fD
o983MgcCmcTpb3MzYjHsK9mOiouaSRsJTY97DQrTNFdVQHx5Z4w+dBV8r6Pqw+Da
16RUSPcgRM5NI6NMubi6AHog/4ou4Y5ZLK5JdV9hVIrWof7HWaj6t/8i+tsYXJfY
O4c+vZMoXC+0nmBUarjIy1ztaPt4MyThYz9Ch4GYv3S1YPNp3tHExEXW+HBBNpb+
UrNhCcFHxfZJEypOj73sd2ZcIZEL2EWN37XUxdT/Krx8dcqhbf2x87A4am0B5u6B
Xj63DV5b2zHYti21owIDAQABo4HBMIG+MAkGA1UdEwQCMAAwEwYDVR0lBAwwCgYI
KwYBBQUHAwEwOgYJYIZIAYb4QgENBC0WK1RMUy1PLU1hdGljIE5vIFZhbGlkYXRp
b24gQ2VydGlmaWNhdGUg8J+SsCAwHQYDVR0OBBYEFDhXNKGQnxSsqArYg6K67mxr
4kGMMB8GA1UdIwQYMBaAFATWohoA2l4XiM8xxsqho9P3n3sqMCAGA1UdEQQZMBeC
FXRlc3Q2LnRscy1vLW1hdGljLmNvbTANBgkqhkiG9w0BAQsFAAOCAgEAcVJRDaUo
TqUP8ejxdiedMof0khY7SxrfqM2RrzPcn8mcGaWSgB33Uftw4rv+V+28spCNEJ1h
TCrL+KjpRFz6n/W7ACni0E8buZpE6/pQHZGmv2Urk/20WpBlpGGlqzg11XmI4WUX
5yb8oAb2Q7uSm3KXmGMufpXeW6wxrvr5u24ayWzeR3ukqWv58D1oMuWaN37VVbjT
5fcb/9IZoExUvZ67IsSoYIf3EZFfNecM/OFjSB/WfpbymDqPXwsy8fAjHZX9bGeA
beJhlRB/PW7+vW3lHLdDhh/IIc30NZcfpDOrvg13L04FzBj/iSjBs0kKQm24l8wI
eE3fT5hB+WRBeNQZALGbkZbTZ2RoSr3hywsrSKr5fPNtqySnLnssqC8So+Pu1kGw
+u6OL1xrTsP5vb6iZkSRMsLb+ibL+5Cz5IPzs8rcAIf+WivpRalCQKKlEusuRMB5
OANrmderIT+qIco4s/cO1HN7hgjNURX/mRxkUFEzopXAsZyZt9/vAxfCwJblIexX
sBfPmerP5Mn6Lvyfz4udI25K1OCgpCrPz4K15wNZSyUVU1yBVAMrkAFUNeIeRxah
6hU379GYipa8oJ3uSF/KT2rfpvW0Zl4l0OaAYulq7VlpUbxa+9GI05+5AJZoe9Qk
AMDVH5iQyIDVQo7/pgEPcyInKJneBhNDdyc=
-----END CERTIFICATE-----
