Certificate:
    Data:
        Version: 3 (0x2)
        Serial Number: 4135 (0x1027)
    Signature Algorithm: sha256WithRSAEncryption
        Issuer: O=TLS-O-Matic Intermediate CA 1, CN=TLS-o-matic-intermediate-1
        Validity
            Not Before: Feb 21 14:34:08 2015 GMT
            Not After : Feb 21 14:34:08 2016 GMT
        Subject: O=Happy Hopper Hip Hop Music (and API services) Inc , CN=test15b.tls-o-matic.com
        Subject Public Key Info:
            Public Key Algorithm: rsaEncryption
                Public-Key: (2048 bit)
                Modulus:
                    00:db:ec:ad:7c:5c:22:65:7c:2e:30:76:a4:af:e6:
                    5e:9e:3a:76:35:74:73:66:e7:02:38:ae:ec:68:f0:
                    7f:34:c0:9f:bd:8d:36:dd:db:1c:87:a2:4c:1c:36:
                    a9:95:62:a9:9b:93:66:c3:d3:10:d7:97:c2:40:4e:
                    bc:53:2d:99:02:a8:8f:6e:74:73:15:42:b3:4c:ea:
                    13:c7:06:c5:c7:ec:a5:2f:25:69:d6:11:35:94:4e:
                    f1:49:54:c7:6f:11:e9:fb:50:ef:3d:65:ac:6a:ad:
                    e9:07:96:6d:32:0d:1c:0c:3f:51:6f:6f:97:21:ea:
                    1d:57:52:55:11:d3:f6:f4:12:07:0a:d8:a6:01:1d:
                    c9:4c:00:ba:1b:94:7d:92:0b:2b:df:4c:d5:f5:17:
                    4b:74:54:7a:68:a7:bf:de:ad:bd:48:9d:4f:2d:d1:
                    8a:75:4a:13:79:74:fe:57:f5:8c:e5:9d:7d:14:69:
                    df:aa:5d:e0:84:30:13:58:a4:96:35:f4:5a:57:bc:
                    ba:93:03:f2:68:5e:02:55:50:e9:f2:13:54:98:89:
                    2c:25:ef:a7:3d:e4:e1:ca:3d:ef:5a:48:da:a9:b9:
                    55:82:e5:61:52:ef:0d:1c:a7:30:9e:10:a1:a6:96:
                    23:0c:d1:d8:e8:3c:2f:4f:01:12:15:22:21:0d:3a:
                    1e:57
                Exponent: 65537 (0x10001)
        X509v3 extensions:
            X509v3 Basic Constraints: 
                CA:FALSE
            X509v3 Extended Key Usage: 
                TLS Web Server Authentication
            Netscape Comment: 
                TLS-O-Matic No Validation Certificate 💰 
            X509v3 Subject Key Identifier: 
                38:37:EC:CB:3B:EF:44:64:94:32:BC:C3:8B:C0:D5:56:67:7B:37:6D
            X509v3 Authority Key Identifier: 
                keyid:3C:8D:0C:2C:72:26:28:A0:65:30:77:82:9E:A9:A3:A7:E9:24:F2:B5

            X509v3 Subject Alternative Name: 
                email:info@tls-o-matic.com
    Signature Algorithm: sha256WithRSAEncryption
         61:a3:79:13:64:fd:cd:bd:7e:bb:b4:c4:6e:ff:5f:98:f1:59:
         77:bd:cc:f9:ba:fd:88:ef:1a:08:6e:92:10:b1:e8:09:66:4d:
         3b:2b:e6:54:f4:65:9e:c0:ec:c2:c5:fc:06:b7:29:dd:7b:ba:
         a1:fd:6a:d8:16:46:45:8b:01:72:7a:56:43:69:91:33:9b:00:
         f5:03:fd:8f:7b:09:af:6e:1b:f5:82:a2:2c:84:43:38:d4:9c:
         b9:7b:f1:f2:10:f2:d2:85:e9:bc:53:f1:78:54:5f:41:65:e2:
         1a:87:37:d3:4f:18:01:71:43:25:be:f7:03:0d:90:00:d9:2b:
         0e:bf:6d:2e:46:c6:98:be:4a:3e:a7:47:55:08:a9:42:01:e3:
         9b:d5:87:bc:62:9b:e6:e4:16:b6:13:f5:be:92:68:ce:f2:db:
         9c:8e:74:33:a7:a2:35:08:c5:cb:94:55:33:93:b8:fd:82:cd:
         8c:ff:8f:a9:f9:5f:1e:96:e9:b8:3f:07:9d:8d:bc:b6:b9:e4:
         75:51:34:03:40:64:72:8e:45:0f:4b:1d:81:bd:b7:c0:8d:a3:
         a6:17:2f:b7:2f:bf:94:5a:3c:fd:a0:f1:da:87:07:62:2f:30:
         22:e5:98:99:d1:4a:b7:ef:2f:75:95:1a:5e:58:1d:d5:42:8d:
         88:6a:89:bd
-----BEGIN CERTIFICATE-----
MIID6TCCAtGgAwIBAgICECcwDQYJKoZIhvcNAQELBQAwTTEmMCQGA1UECgwdVExT
LU8tTWF0aWMgSW50ZXJtZWRpYXRlIENBIDExIzAhBgNVBAMMGlRMUy1vLW1hdGlj
LWludGVybWVkaWF0ZS0xMB4XDTE1MDIyMTE0MzQwOFoXDTE2MDIyMTE0MzQwOFow
XzE7MDkGA1UECgwySGFwcHkgSG9wcGVyIEhpcCBIb3AgTXVzaWMgKGFuZCBBUEkg
c2VydmljZXMpIEluYyAxIDAeBgNVBAMMF3Rlc3QxNWIudGxzLW8tbWF0aWMuY29t
MIIBIjANBgkqhkiG9w0BAQEFAAOCAQ8AMIIBCgKCAQEA2+ytfFwiZXwuMHakr+Ze
njp2NXRzZucCOK7saPB/NMCfvY023dsch6JMHDaplWKpm5Nmw9MQ15fCQE68Uy2Z
AqiPbnRzFUKzTOoTxwbFx+ylLyVp1hE1lE7xSVTHbxHp+1DvPWWsaq3pB5ZtMg0c
DD9Rb2+XIeodV1JVEdP29BIHCtimAR3JTAC6G5R9kgsr30zV9RdLdFR6aKe/3q29
SJ1PLdGKdUoTeXT+V/WM5Z19FGnfql3ghDATWKSWNfRaV7y6kwPyaF4CVVDp8hNU
mIksJe+nPeThyj3vWkjaqblVguVhUu8NHKcwnhChppYjDNHY6DwvTwESFSIhDToe
VwIDAQABo4HAMIG9MAkGA1UdEwQCMAAwEwYDVR0lBAwwCgYIKwYBBQUHAwEwOgYJ
YIZIAYb4QgENBC0WK1RMUy1PLU1hdGljIE5vIFZhbGlkYXRpb24gQ2VydGlmaWNh
dGUg8J+SsCAwHQYDVR0OBBYEFDg37Ms770RklDK8w4vA1VZnezdtMB8GA1UdIwQY
MBaAFDyNDCxyJiigZTB3gp6po6fpJPK1MB8GA1UdEQQYMBaBFGluZm9AdGxzLW8t
bWF0aWMuY29tMA0GCSqGSIb3DQEBCwUAA4IBAQBho3kTZP3NvX67tMRu/1+Y8Vl3
vcz5uv2I7xoIbpIQsegJZk07K+ZU9GWewOzCxfwGtynde7qh/WrYFkZFiwFyelZD
aZEzmwD1A/2Pewmvbhv1gqIshEM41Jy5e/HyEPLShem8U/F4VF9BZeIahzfTTxgB
cUMlvvcDDZAA2SsOv20uRsaYvko+p0dVCKlCAeOb1Ye8Ypvm5Ba2E/W+kmjO8tuc
jnQzp6I1CMXLlFUzk7j9gs2M/4+p+V8elum4Pwedjby2ueR1UTQDQGRyjkUPSx2B
vbfAjaOmFy+3L7+UWjz9oPHahwdiLzAi5ZiZ0Uq37y91lRpeWB3VQo2Iaom9
-----END CERTIFICATE-----
