Certificate:
    Data:
        Version: 3 (0x2)
        Serial Number: 4110 (0x100e)
    Signature Algorithm: sha256WithRSAEncryption
        Issuer: O=D&O Trustworth Certificates - "Trust Us For Your Security", CN=CA for tls-o-matic.com
        Validity
            Not Before: Mar  1 19:27:46 2015 GMT
            Not After : Feb 29 19:27:46 2016 GMT
        Subject: O=Arrogant Security Consultants LLC, CN=test1.tls-o-matic.com
        Subject Public Key Info:
            Public Key Algorithm: rsaEncryption
                Public-Key: (2048 bit)
                Modulus:
                    00:de:b8:05:f3:35:10:f8:64:92:7f:37:4d:cc:f3:
                    e7:ee:53:b5:c6:12:b6:ab:fe:86:6f:f3:c9:09:22:
                    86:2a:6e:19:5b:fe:cc:cf:08:80:5a:7e:6f:d9:e8:
                    65:d3:4c:f1:3f:1d:fd:6f:fd:d3:ba:1c:c7:fb:45:
                    37:31:81:bf:9a:c3:77:70:95:f0:5c:5d:20:2b:78:
                    87:67:8c:62:b2:65:ed:50:02:43:86:47:53:bb:f5:
                    9c:b8:eb:a4:d1:3b:b8:20:d3:62:7c:80:89:13:d9:
                    d7:20:06:2c:04:ac:30:d7:e1:d3:7b:0e:08:58:54:
                    94:52:9a:24:3b:db:7f:6b:53:35:5c:aa:63:48:f3:
                    bb:66:4a:a4:e2:17:f0:8a:1f:4d:11:08:cb:c5:c1:
                    93:96:f8:c5:d3:5b:49:4c:e1:1e:a4:b8:3c:73:5b:
                    95:94:17:30:47:df:d7:6c:f8:89:c8:8d:de:4f:09:
                    37:e9:0f:52:2e:74:25:53:f5:b1:6f:5f:0c:70:f5:
                    65:01:90:6f:9f:f7:8b:dd:d6:01:49:68:a6:6b:a9:
                    a0:c0:9b:a5:67:0d:d0:2d:1a:c8:5c:f9:1b:c1:ec:
                    10:11:72:d3:43:a1:7c:01:a8:a5:ac:3e:b1:a2:c3:
                    16:3b:b2:b4:06:94:53:8f:9c:6e:f1:9d:0d:93:d0:
                    f3:95
                Exponent: 65537 (0x10001)
        X509v3 extensions:
            X509v3 Basic Constraints: 
                CA:FALSE
            X509v3 Extended Key Usage: 
                TLS Web Server Authentication
            Netscape Comment: 
                TLS-O-Matic No Validation Certificate 💰 
            X509v3 Subject Key Identifier: 
                CA:0D:CF:0D:B7:14:5D:DD:AC:03:54:60:ED:6D:01:15:6A:4E:31:1E
            X509v3 Authority Key Identifier: 
                keyid:04:D6:A2:1A:00:DA:5E:17:88:CF:31:C6:CA:A1:A3:D3:F7:9F:7B:2A

            X509v3 Subject Alternative Name: 
                DNS:test1.tls-o-matic.com
    Signature Algorithm: sha256WithRSAEncryption
         4d:10:14:eb:6d:82:61:e2:2d:c3:b7:6d:3a:44:c1:29:6d:6d:
         57:94:5a:06:59:9d:19:17:63:b4:4b:1d:14:b9:f9:e8:01:1c:
         b6:26:9c:01:16:e3:2f:14:46:eb:e8:ee:54:1b:b1:70:3d:26:
         6e:83:0f:d9:ef:23:72:97:1b:4e:89:bd:fe:a9:24:47:53:80:
         94:a7:27:23:af:42:e3:a1:e2:a4:8d:d7:a9:8a:26:18:2c:4e:
         0f:91:50:08:aa:f2:f0:bd:8b:66:3b:f5:1a:89:22:1e:7a:fc:
         ac:bc:62:e4:d1:05:3a:fb:4c:3b:12:cc:ed:da:47:53:d5:d6:
         dd:52:9c:a7:6b:4a:ea:04:56:26:03:3a:b3:b4:a0:3d:09:7f:
         25:57:2a:d5:ad:52:01:43:cc:46:d4:a6:b4:c4:c2:33:3e:d0:
         5f:1e:03:12:21:ee:ef:f6:1c:4b:ba:0a:19:29:38:78:88:d3:
         07:09:26:a8:a4:bb:0d:94:8c:3c:29:ba:05:78:92:f4:e3:16:
         08:be:5e:03:08:05:f0:d4:55:73:5b:51:99:67:a8:a8:d0:aa:
         97:88:1c:53:a4:19:03:1a:8d:88:11:bf:0a:4b:66:53:d2:92:
         85:74:fb:a6:b7:95:8d:ed:d1:87:38:fd:f1:02:af:fe:c8:c5:
         ee:0d:2d:3a:3d:f2:c4:b0:38:9b:66:86:45:ec:0a:18:3c:86:
         c9:54:79:c6:90:7b:50:d5:b7:08:66:d7:13:f1:5f:16:d5:e1:
         36:aa:37:12:fd:ae:5d:ec:cf:da:35:d5:48:b3:45:b7:72:b9:
         f2:dc:e7:19:4c:63:9a:53:41:c0:fe:90:1d:6d:36:f5:7b:89:
         7f:e6:46:e9:df:cf:aa:c2:9f:de:7d:da:72:77:b8:eb:5d:ba:
         e0:59:ad:a1:21:82:6f:5e:76:49:1f:a0:50:7f:dd:a9:f8:be:
         a0:45:a7:9b:b6:5a:77:61:14:4f:d9:6e:b5:66:30:7a:35:4b:
         81:80:72:40:22:e2:85:fa:86:96:18:ac:6e:d7:9c:a0:b4:62:
         94:bf:55:7a:2d:a7:94:b1:b2:b5:f9:88:fe:4f:8f:fa:a4:90:
         95:74:d9:37:78:91:d5:c6:82:2d:22:47:f0:ac:bd:49:ae:2f:
         7c:5f:aa:b6:e1:0a:4f:8b:f4:95:3a:75:79:ec:95:01:8b:57:
         b5:51:c6:4d:19:0e:aa:32:22:e1:90:0c:f1:b9:46:6d:68:cf:
         9f:8f:d4:1b:ee:b7:cf:06:f2:3e:3f:24:9b:d1:dd:9f:ec:95:
         e2:61:6a:30:dd:c5:82:a1:29:2f:41:2b:46:0b:60:97:28:84:
         d8:8d:d5:4e:78:ad:22:9a
-----BEGIN CERTIFICATE-----
MIIE8DCCAtigAwIBAgICEA4wDQYJKoZIhvcNAQELBQAwZjFDMEEGA1UECgw6RCZP
IFRydXN0d29ydGggQ2VydGlmaWNhdGVzIC0gIlRydXN0IFVzIEZvciBZb3VyIFNl
Y3VyaXR5IjEfMB0GA1UEAwwWQ0EgZm9yIHRscy1vLW1hdGljLmNvbTAeFw0xNTAz
MDExOTI3NDZaFw0xNjAyMjkxOTI3NDZaMEwxKjAoBgNVBAoMIUFycm9nYW50IFNl
Y3VyaXR5IENvbnN1bHRhbnRzIExMQzEeMBwGA1UEAwwVdGVzdDEudGxzLW8tbWF0
aWMuY29tMIIBIjANBgkqhkiG9w0BAQEFAAOCAQ8AMIIBCgKCAQEA3rgF8zUQ+GSS
fzdNzPPn7lO1xhK2q/6Gb/PJCSKGKm4ZW/7MzwiAWn5v2ehl00zxPx39b/3TuhzH
+0U3MYG/msN3cJXwXF0gK3iHZ4xismXtUAJDhkdTu/WcuOuk0Tu4INNifICJE9nX
IAYsBKww1+HTew4IWFSUUpokO9t/a1M1XKpjSPO7Zkqk4hfwih9NEQjLxcGTlvjF
01tJTOEepLg8c1uVlBcwR9/XbPiJyI3eTwk36Q9SLnQlU/Wxb18McPVlAZBvn/eL
3dYBSWima6mgwJulZw3QLRrIXPkbwewQEXLTQ6F8AailrD6xosMWO7K0BpRTj5xu
8Z0Nk9DzlQIDAQABo4HBMIG+MAkGA1UdEwQCMAAwEwYDVR0lBAwwCgYIKwYBBQUH
AwEwOgYJYIZIAYb4QgENBC0WK1RMUy1PLU1hdGljIE5vIFZhbGlkYXRpb24gQ2Vy
dGlmaWNhdGUg8J+SsCAwHQYDVR0OBBYEFMoNzw23FF3drANUYO1tARVqTjEeMB8G
A1UdIwQYMBaAFATWohoA2l4XiM8xxsqho9P3n3sqMCAGA1UdEQQZMBeCFXRlc3Qx
LnRscy1vLW1hdGljLmNvbTANBgkqhkiG9w0BAQsFAAOCAgEATRAU622CYeItw7dt
OkTBKW1tV5RaBlmdGRdjtEsdFLn56AEctiacARbjLxRG6+juVBuxcD0mboMP2e8j
cpcbTom9/qkkR1OAlKcnI69C46HipI3XqYomGCxOD5FQCKry8L2LZjv1GokiHnr8
rLxi5NEFOvtMOxLM7dpHU9XW3VKcp2tK6gRWJgM6s7SgPQl/JVcq1a1SAUPMRtSm
tMTCMz7QXx4DEiHu7/YcS7oKGSk4eIjTBwkmqKS7DZSMPCm6BXiS9OMWCL5eAwgF
8NRVc1tRmWeoqNCql4gcU6QZAxqNiBG/CktmU9KShXT7preVje3Rhzj98QKv/sjF
7g0tOj3yxLA4m2aGRewKGDyGyVR5xpB7UNW3CGbXE/FfFtXhNqo3Ev2uXezP2jXV
SLNFt3K58tznGUxjmlNBwP6QHW029XuJf+ZG6d/PqsKf3n3acne461264FmtoSGC
b152SR+gUH/dqfi+oEWnm7Zad2EUT9lutWYwejVLgYByQCLihfqGlhisbtecoLRi
lL9Vei2nlLGytfmI/k+P+qSQlXTZN3iR1caCLSJH8Ky9Sa4vfF+qtuEKT4v0lTp1
eeyVAYtXtVHGTRkOqjIi4ZAM8blGbWjPn4/UG+63zwbyPj8km9Hdn+yV4mFqMN3F
gqEpL0ErRgtglyiE2I3VTnitIpo=
-----END CERTIFICATE-----
