Certificate:
    Data:
        Version: 3 (0x2)
        Serial Number: 4100 (0x1004)
    Signature Algorithm: sha256WithRSAEncryption
        Issuer: O=D&O TLS-O-MATIC CERTIFICATE AUTHORITY AB, CN=tls-o-matic.com
        Validity
            Not Before: Feb 14 13:24:36 2015 GMT
            Not After : Feb 14 13:24:36 2016 GMT
        Subject: O=Manuelas klara bilar AB \xF0\x9F\x9A\x99 , CN=test42.tls-o-matic.com
        Subject Public Key Info:
            Public Key Algorithm: rsaEncryption
                Public-Key: (2048 bit)
                Modulus:
                    00:b3:c8:83:2f:ea:d5:72:f4:98:f9:11:98:80:73:
                    92:aa:94:26:97:79:23:e1:8a:ff:c7:86:ac:d8:c7:
                    d9:8e:ee:f0:f1:d8:75:1f:b8:43:40:e2:b9:34:11:
                    7c:32:e9:b8:3a:d8:4f:3f:e0:19:ac:8d:33:07:a1:
                    3b:99:55:4c:5f:6f:f8:af:0e:ba:c2:da:3f:34:15:
                    3b:45:22:e9:3f:e0:59:ba:81:77:1b:58:94:b6:bf:
                    f4:58:17:a9:7c:9e:51:03:1a:a0:94:ee:e6:38:93:
                    00:c1:c4:ab:3c:ad:ed:6e:d4:fd:59:4a:68:80:e2:
                    2c:3c:97:21:e9:45:cd:95:91:21:34:8e:a3:89:b4:
                    ae:0a:42:d3:c6:28:42:32:2c:41:56:78:00:fd:c1:
                    5e:35:23:c0:eb:e4:5f:d8:90:2d:58:10:a0:11:b1:
                    de:f4:01:03:ff:22:37:4b:c9:46:f5:c5:f1:30:0b:
                    df:ec:ae:26:71:3a:a4:ed:ad:f4:ab:94:84:6c:cb:
                    6f:37:f0:95:68:a1:db:a5:61:f6:e1:87:5a:b0:9c:
                    d6:66:4e:df:ae:57:94:32:83:bc:19:11:50:3e:5d:
                    e8:19:be:37:79:92:b3:10:a4:cb:d9:4f:1a:c0:57:
                    63:3b:48:a1:e3:d2:10:9c:93:3c:f2:45:ff:f4:01:
                    0a:cd
                Exponent: 65537 (0x10001)
        X509v3 extensions:
            X509v3 Basic Constraints: 
                CA:FALSE
            Netscape Comment: 
                TLS-O-Matic No Validation Certificate 💰 
            X509v3 Subject Key Identifier: 
                B3:9E:DF:48:A4:94:05:2A:DA:6F:CD:79:99:3A:3E:C2:8D:41:CF:C0
            X509v3 Authority Key Identifier: 
                keyid:1D:6D:58:5B:49:3A:CC:00:2B:22:20:40:42:56:DD:C7:EB:B2:73:45

            X509v3 Subject Alternative Name: 
                DNS:test41.tls-o-matic.com
    Signature Algorithm: sha256WithRSAEncryption
         6a:f9:05:05:24:e7:44:d5:79:7f:ab:81:76:d5:ed:79:de:45:
         6b:0a:07:18:12:f0:b6:5e:a6:d4:ac:e0:2d:74:b0:2f:e2:63:
         32:39:75:af:8a:0e:97:6a:1f:43:0c:d3:d8:4a:74:30:fe:73:
         c2:53:db:45:11:7d:be:09:b9:2a:a7:6e:40:09:1c:af:f8:24:
         2e:ec:a8:e4:87:bc:06:27:f9:8e:1f:86:96:76:d9:6f:98:49:
         98:c1:9d:b9:26:64:f9:27:12:8c:09:3b:1e:b3:0c:f2:5d:16:
         a4:6f:c3:eb:f4:40:22:db:c5:f9:f4:f6:26:49:8e:63:99:d9:
         05:9e:37:f0:78:9e:e9:e4:a0:2a:11:26:c8:d3:db:08:8d:6b:
         b1:5b:09:4b:22:b0:f3:70:64:b1:32:b3:a5:ba:6a:58:5a:37:
         fb:9e:49:88:df:7c:15:8f:76:55:e2:d4:79:ce:96:26:4e:ed:
         fd:fd:cc:9e:21:6f:e9:c9:fd:6e:b6:b0:3f:07:32:d3:1a:98:
         e8:d0:0e:36:39:2b:2b:3e:d5:13:c7:d5:6a:43:6b:96:09:48:
         e7:ce:cb:77:ea:05:02:78:ed:ae:2a:16:47:da:19:61:70:c9:
         ca:bd:60:c1:5c:3e:e6:55:69:11:36:da:60:34:ff:55:29:c4:
         81:0b:cc:80
-----BEGIN CERTIFICATE-----
MIIDwDCCAqigAwIBAgICEAQwDQYJKoZIhvcNAQELBQAwTTExMC8GA1UEChQoRCZP
IFRMUy1PLU1BVElDIENFUlRJRklDQVRFIEFVVEhPUklUWSBBQjEYMBYGA1UEAxMP
dGxzLW8tbWF0aWMuY29tMB4XDTE1MDIxNDEzMjQzNloXDTE2MDIxNDEzMjQzNlow
STEmMCQGA1UECgwdTWFudWVsYXMga2xhcmEgYmlsYXIgQUIg8J+amSAxHzAdBgNV
BAMMFnRlc3Q0Mi50bHMtby1tYXRpYy5jb20wggEiMA0GCSqGSIb3DQEBAQUAA4IB
DwAwggEKAoIBAQCzyIMv6tVy9Jj5EZiAc5KqlCaXeSPhiv/HhqzYx9mO7vDx2HUf
uENA4rk0EXwy6bg62E8/4BmsjTMHoTuZVUxfb/ivDrrC2j80FTtFIuk/4Fm6gXcb
WJS2v/RYF6l8nlEDGqCU7uY4kwDBxKs8re1u1P1ZSmiA4iw8lyHpRc2VkSE0jqOJ
tK4KQtPGKEIyLEFWeAD9wV41I8Dr5F/YkC1YEKARsd70AQP/IjdLyUb1xfEwC9/s
riZxOqTtrfSrlIRsy2838JVoodulYfbhh1qwnNZmTt+uV5Qyg7wZEVA+XegZvjd5
krMQpMvZTxrAV2M7SKHj0hCckzzyRf/0AQrNAgMBAAGjga0wgaowCQYDVR0TBAIw
ADA6BglghkgBhvhCAQ0ELRYrVExTLU8tTWF0aWMgTm8gVmFsaWRhdGlvbiBDZXJ0
aWZpY2F0ZSDwn5KwIDAdBgNVHQ4EFgQUs57fSKSUBSrab815mTo+wo1Bz8AwHwYD
VR0jBBgwFoAUHW1YW0k6zAArIiBAQlbdx+uyc0UwIQYDVR0RBBowGIIWdGVzdDQx
LnRscy1vLW1hdGljLmNvbTANBgkqhkiG9w0BAQsFAAOCAQEAavkFBSTnRNV5f6uB
dtXted5FawoHGBLwtl6m1KzgLXSwL+JjMjl1r4oOl2ofQwzT2Ep0MP5zwlPbRRF9
vgm5KqduQAkcr/gkLuyo5Ie8Bif5jh+GlnbZb5hJmMGduSZk+ScSjAk7HrMM8l0W
pG/D6/RAItvF+fT2JkmOY5nZBZ438Hie6eSgKhEmyNPbCI1rsVsJSyKw83BksTKz
pbpqWFo3+55JiN98FY92VeLUec6WJk7t/f3MniFv6cn9brawPwcy0xqY6NAONjkr
Kz7VE8fVakNrlglI587Ld+oFAnjtrioWR9oZYXDJyr1gwVw+5lVpETbaYDT/VSnE
gQvMgA==
-----END CERTIFICATE-----
