Certificate:
    Data:
        Version: 3 (0x2)
        Serial Number: 4128 (0x1020)
    Signature Algorithm: sha256WithRSAEncryption
        Issuer: O=D&O Trustworth Certificates - "Trust Us For Your Security", CN=CA for tls-o-matic.com
        Validity
            Not Before: Mar  2 06:40:58 2015 GMT
            Not After : Mar  1 06:40:58 2016 GMT
        Subject: O=Ting Tagel Upside Down and Inside Out Non-Restful Services Inc, CN=test14.tls-o-matic.com
        Subject Public Key Info:
            Public Key Algorithm: rsaEncryption
                Public-Key: (4096 bit)
                Modulus:
                    00:ce:ec:79:b0:a4:91:20:2e:ab:e7:92:c1:1a:4a:
                    9b:e7:d4:03:c7:1e:c1:95:2d:e4:5b:c0:c8:4e:87:
                    73:10:d5:54:93:62:c7:3a:76:7a:5c:b6:8c:ae:94:
                    fe:31:49:f4:c4:dd:57:00:c2:d9:c3:a0:20:9f:82:
                    4c:50:bd:bc:21:68:66:2d:57:aa:6b:4f:8b:c4:70:
                    8b:08:e9:0d:25:06:b8:51:34:91:79:f4:b9:f7:21:
                    a8:98:02:0d:5e:3a:58:20:d8:d3:16:3c:6b:db:96:
                    42:09:e4:ba:f2:65:d7:59:31:9e:34:87:e1:cb:18:
                    0a:da:30:4d:5e:9d:81:a2:0d:78:52:75:e5:96:61:
                    a8:b6:39:0c:72:6c:47:2a:6b:d9:ba:b7:cc:36:20:
                    94:57:31:bc:82:98:64:88:91:9e:04:97:d4:66:ef:
                    dc:0d:94:05:e9:12:b7:b1:0b:4e:27:9d:52:c1:9d:
                    bb:19:c7:4c:06:fe:04:f2:2e:9b:b8:45:54:e8:c4:
                    7f:15:a5:05:b3:57:ad:26:a0:86:4e:74:f4:05:eb:
                    ba:fa:9c:22:2c:c7:7b:24:ee:b9:e0:e1:a3:97:50:
                    6a:a1:d9:84:39:bf:60:a4:f7:de:f7:d7:13:d1:6a:
                    5f:4e:9c:eb:c1:b9:8b:e4:4a:dd:f2:ec:ce:66:09:
                    65:2f:12:03:6c:54:98:a3:fc:7c:0d:ff:92:03:da:
                    ba:c9:08:7d:09:39:7e:50:57:ac:8b:47:14:8b:b9:
                    18:1c:d2:bb:47:be:90:bf:e3:64:82:08:cf:46:b8:
                    fb:2e:e7:90:c0:a7:42:90:e0:f7:60:ae:42:fd:13:
                    b6:86:67:d1:8c:d2:46:87:85:a2:5f:78:09:9d:f7:
                    57:67:ad:2f:9c:52:cf:a8:fe:29:49:50:77:b1:4b:
                    31:2f:2f:60:11:1d:71:06:ff:65:4c:b5:60:50:b4:
                    36:74:40:dc:cc:56:2a:b9:b7:11:3b:01:4b:5f:fa:
                    22:11:76:85:7f:b7:93:ea:ac:bb:3e:38:cc:99:ae:
                    29:b7:c1:8d:f9:f6:2f:fa:9d:41:62:d1:db:8c:3e:
                    ce:b9:d6:5d:80:e2:24:5e:c7:e2:8a:1b:1e:3d:7c:
                    d5:f3:73:31:c3:56:0e:a4:f9:d6:be:5d:b1:80:d2:
                    e9:c6:cc:91:3a:62:d6:b6:80:64:42:23:97:ce:35:
                    e3:28:17:08:0e:5c:1c:e1:7a:51:e4:c1:1b:c6:df:
                    a6:40:96:7c:17:0c:a9:ce:41:c6:cc:d7:b9:42:f3:
                    13:51:8e:96:88:1e:42:f9:3b:86:7a:aa:4d:6c:18:
                    60:43:9e:4a:d7:54:9b:54:5c:29:5c:c6:8b:36:45:
                    d2:14:31
                Exponent: 65537 (0x10001)
        X509v3 extensions:
            X509v3 Basic Constraints: 
                CA:FALSE
            X509v3 Subject Alternative Name: 
                DNS:test14.tls-o-matic.com
            X509v3 Subject Key Identifier: 
                98:03:EB:01:7C:27:16:B7:7A:3B:C0:87:4C:81:32:20:5F:DE:8E:6E
            X509v3 Key Usage: 
                Digital Signature, Non Repudiation, Key Encipherment, Data Encipherment, Certificate Sign, Encipher Only
            X509v3 Extended Key Usage: 
                E-mail Protection
    Signature Algorithm: sha256WithRSAEncryption
         0c:95:be:f7:ed:3a:34:8e:d4:cb:70:2b:3b:2a:c2:ad:29:79:
         2e:e3:78:29:df:8d:26:c4:cf:3e:45:af:80:87:18:2b:e3:30:
         67:c7:34:a2:54:af:a4:f0:65:4c:36:98:1d:21:68:bc:44:93:
         18:3b:06:1e:01:b4:a7:89:1b:c5:59:d8:c3:69:21:b7:ac:7a:
         2d:00:c0:60:6b:2e:f8:7c:61:e6:19:46:4d:5a:55:87:9d:1f:
         7c:c5:e5:b2:3f:10:8b:cb:d7:c2:90:72:69:29:3b:ee:69:66:
         3a:b1:6f:d3:da:5c:23:5c:b6:08:38:71:c0:0e:55:9f:bd:4a:
         9f:c4:d9:fa:4c:70:35:ba:a7:0d:68:47:d7:38:5d:e1:dc:d6:
         c1:bd:ab:82:ce:3d:70:ac:8f:6e:4c:3a:8b:95:80:1d:f4:88:
         d6:bd:8e:97:e1:53:f3:59:c5:78:a0:c2:11:7e:aa:42:21:9c:
         c5:3b:0b:b2:24:7a:db:44:9f:92:e6:36:8c:61:6f:5d:ec:ce:
         9a:93:9a:32:83:56:b8:f8:0d:22:dd:8d:a9:29:5a:7c:87:76:
         81:23:8f:dc:04:66:87:63:9a:2f:c9:5d:32:b4:4f:29:c5:d5:
         81:27:57:e8:1a:ae:c9:cd:82:36:11:be:cd:35:ed:4a:40:f8:
         e2:d6:59:03:fa:24:6a:a5:d8:41:50:24:07:fc:4b:b7:42:84:
         da:35:56:a2:56:1f:22:36:71:0d:7d:ff:2f:e7:f1:18:85:cb:
         b5:ff:94:2c:a1:2f:fe:bf:ed:64:47:4f:ad:e8:cb:0c:a2:42:
         d7:d8:51:6e:f2:53:39:b4:cc:e3:b7:99:57:2d:09:f7:e4:a5:
         75:be:58:97:2d:07:81:9c:24:26:cc:37:3b:f1:10:4a:ba:9a:
         30:8f:4d:ab:77:81:1e:13:2e:12:a9:88:ef:67:3c:bf:15:67:
         2c:7b:b7:f6:d2:bd:d5:88:10:61:3a:33:32:a1:11:40:cb:fc:
         66:b7:f8:ca:30:b9:60:b9:b6:de:fc:33:95:d1:bc:97:86:0e:
         87:43:8b:d5:d9:1e:c2:eb:29:f8:e7:d5:f3:ff:3b:b4:6b:70:
         35:6e:01:2b:06:0e:d2:a8:5a:87:2d:2a:d5:67:3e:f9:1c:19:
         22:4b:22:41:14:45:dd:c5:6e:69:c9:53:dd:f5:b4:34:74:73:
         c1:c4:57:07:8b:40:18:86:13:9e:84:3b:d2:ae:5c:07:6a:b4:
         4b:c1:96:f6:43:58:6a:43:22:1f:96:96:e6:6c:d5:8e:40:c2:
         ca:6e:88:71:3c:29:75:d5:4b:8e:d4:63:46:4a:86:68:af:ee:
         73:3a:cb:31:8d:62:65:9a
-----BEGIN CERTIFICATE-----
MIIFvTCCA6WgAwIBAgICECAwDQYJKoZIhvcNAQELBQAwZjFDMEEGA1UECgw6RCZP
IFRydXN0d29ydGggQ2VydGlmaWNhdGVzIC0gIlRydXN0IFVzIEZvciBZb3VyIFNl
Y3VyaXR5IjEfMB0GA1UEAwwWQ0EgZm9yIHRscy1vLW1hdGljLmNvbTAeFw0xNTAz
MDIwNjQwNThaFw0xNjAzMDEwNjQwNThaMGoxRzBFBgNVBAoMPlRpbmcgVGFnZWwg
VXBzaWRlIERvd24gYW5kIEluc2lkZSBPdXQgTm9uLVJlc3RmdWwgU2VydmljZXMg
SW5jMR8wHQYDVQQDDBZ0ZXN0MTQudGxzLW8tbWF0aWMuY29tMIICIjANBgkqhkiG
9w0BAQEFAAOCAg8AMIICCgKCAgEAzux5sKSRIC6r55LBGkqb59QDxx7BlS3kW8DI
TodzENVUk2LHOnZ6XLaMrpT+MUn0xN1XAMLZw6Agn4JMUL28IWhmLVeqa0+LxHCL
COkNJQa4UTSRefS59yGomAINXjpYINjTFjxr25ZCCeS68mXXWTGeNIfhyxgK2jBN
Xp2Bog14UnXllmGotjkMcmxHKmvZurfMNiCUVzG8gphkiJGeBJfUZu/cDZQF6RK3
sQtOJ51SwZ27GcdMBv4E8i6buEVU6MR/FaUFs1etJqCGTnT0Beu6+pwiLMd7JO65
4OGjl1BqodmEOb9gpPfe99cT0WpfTpzrwbmL5Erd8uzOZgllLxIDbFSYo/x8Df+S
A9q6yQh9CTl+UFesi0cUi7kYHNK7R76Qv+NkggjPRrj7LueQwKdCkOD3YK5C/RO2
hmfRjNJGh4WiX3gJnfdXZ60vnFLPqP4pSVB3sUsxLy9gER1xBv9lTLVgULQ2dEDc
zFYqubcROwFLX/oiEXaFf7eT6qy7PjjMma4pt8GN+fYv+p1BYtHbjD7OudZdgOIk
XsfiihsePXzV83Mxw1YOpPnWvl2xgNLpxsyROmLWtoBkQiOXzjXjKBcIDlwc4XpR
5MEbxt+mQJZ8FwypzkHGzNe5QvMTUY6WiB5C+TuGeqpNbBhgQ55K11SbVFwpXMaL
NkXSFDECAwEAAaNxMG8wCQYDVR0TBAIwADAhBgNVHREEGjAYghZ0ZXN0MTQudGxz
LW8tbWF0aWMuY29tMB0GA1UdDgQWBBSYA+sBfCcWt3o7wIdMgTIgX96ObjALBgNV
HQ8EBAMCAPUwEwYDVR0lBAwwCgYIKwYBBQUHAwQwDQYJKoZIhvcNAQELBQADggIB
AAyVvvftOjSO1MtwKzsqwq0peS7jeCnfjSbEzz5Fr4CHGCvjMGfHNKJUr6TwZUw2
mB0haLxEkxg7Bh4BtKeJG8VZ2MNpIbesei0AwGBrLvh8YeYZRk1aVYedH3zF5bI/
EIvL18KQcmkpO+5pZjqxb9PaXCNctgg4ccAOVZ+9Sp/E2fpMcDW6pw1oR9c4XeHc
1sG9q4LOPXCsj25MOouVgB30iNa9jpfhU/NZxXigwhF+qkIhnMU7C7IkettEn5Lm
Noxhb13szpqTmjKDVrj4DSLdjakpWnyHdoEjj9wEZodjmi/JXTK0TynF1YEnV+ga
rsnNgjYRvs017UpA+OLWWQP6JGql2EFQJAf8S7dChNo1VqJWHyI2cQ19/y/n8RiF
y7X/lCyhL/6/7WRHT63oywyiQtfYUW7yUzm0zOO3mVctCffkpXW+WJctB4GcJCbM
NzvxEEq6mjCPTat3gR4TLhKpiO9nPL8VZyx7t/bSvdWIEGE6MzKhEUDL/Ga3+Mow
uWC5tt78M5XRvJeGDodDi9XZHsLrKfjn1fP/O7RrcDVuASsGDtKoWoctKtVnPvkc
GSJLIkEURd3FbmnJU931tDR0c8HEVweLQBiGE56EO9KuXAdqtEvBlvZDWGpDIh+W
luZs1Y5AwspuiHE8KXXVS47UY0ZKhmiv7nM6yzGNYmWa
-----END CERTIFICATE-----
