Certificate:
    Data:
        Version: 3 (0x2)
        Serial Number: 4132 (0x1024)
    Signature Algorithm: sha256WithRSAEncryption
        Issuer: O=Intermediate 1 tls-o-matic.com, CN=TLS-o-matic-intermediate-1
        Validity
            Not Before: Mar  2 06:42:50 2015 GMT
            Not After : Mar  1 06:42:50 2016 GMT
        Subject: O=Funny Frog API services for hot dog distribution and car wash, CN=test15a.tls-o-matic.com
        Subject Public Key Info:
            Public Key Algorithm: rsaEncryption
                Public-Key: (2048 bit)
                Modulus:
                    00:c0:0e:ed:d6:1c:e7:e4:dd:fa:9e:da:c3:b7:71:
                    dc:65:9a:a2:ee:6d:ff:71:f8:a7:55:59:b6:a5:2c:
                    52:70:61:e3:f3:2c:89:53:2f:fb:5b:ad:57:09:fb:
                    03:cf:5b:3a:97:98:20:9c:37:ff:fd:03:00:73:26:
                    95:6b:2d:62:b8:c3:7b:06:00:ca:5a:85:47:2c:ab:
                    f3:66:97:72:62:bf:a8:ca:a8:74:68:3c:a0:f0:6d:
                    65:bb:37:d0:a7:31:f4:48:d7:a7:85:ef:6c:3b:1b:
                    1c:36:95:d3:86:7a:3a:d4:6f:46:e5:3c:d9:64:d3:
                    4d:ee:e2:15:1d:a6:f4:1e:71:57:39:e4:32:80:da:
                    50:4e:bf:b8:e1:15:68:ed:35:1a:6c:46:49:bd:a6:
                    a3:8b:bc:f7:5a:c5:b4:40:a4:de:05:d9:78:a7:20:
                    34:a5:bc:4c:f9:16:dd:4a:52:bd:5e:57:fa:2a:21:
                    fb:57:4f:a0:7f:d2:3e:67:b4:9a:82:ab:57:96:f5:
                    85:1c:35:34:af:47:37:f6:5e:bb:c7:d9:3d:53:1d:
                    83:b9:96:7f:64:cb:4b:0d:9c:ec:7e:64:f6:ef:db:
                    88:a8:dc:f1:3d:ae:18:af:8e:cb:9d:26:35:f7:39:
                    95:af:42:24:33:44:4e:78:18:7a:ae:ff:bd:f3:bc:
                    2f:65
                Exponent: 65537 (0x10001)
        X509v3 extensions:
            X509v3 Basic Constraints: 
                CA:FALSE
            X509v3 Extended Key Usage: 
                TLS Web Server Authentication
            Netscape Comment: 
                TLS-O-Matic No Validation Certificate 💰 
            X509v3 Subject Key Identifier: 
                76:DE:BA:5A:7C:F0:78:DD:A0:A2:EA:3D:0F:5F:4D:98:07:E0:B9:01
            X509v3 Authority Key Identifier: 
                keyid:8F:6B:1F:E7:9D:35:5C:3C:D4:EA:1B:79:A5:83:AD:FE:97:9A:8B:D1

            X509v3 Subject Alternative Name: 
                email:info@tls-o-matic.com
    Signature Algorithm: sha256WithRSAEncryption
         47:2d:d5:cb:3d:4d:ec:78:12:93:cb:96:32:4c:00:47:e5:86:
         65:2e:04:a8:a9:42:b7:6e:f8:b5:6d:df:cd:93:17:bc:e4:c3:
         03:56:73:76:e2:63:46:89:9f:5a:bd:eb:67:af:9a:c9:08:f0:
         7a:c8:04:77:da:78:ff:d1:fd:b0:f3:fd:ad:41:14:91:d7:ea:
         d7:53:f5:26:f2:7e:55:43:08:07:36:54:e3:a9:35:70:61:49:
         85:4d:40:97:2b:1c:48:40:f5:d0:d2:fa:cb:d6:f2:bf:97:ac:
         b7:e4:67:aa:5c:12:00:93:d4:2b:d3:b6:b5:28:02:f8:c0:0a:
         f4:52:3a:3a:cc:69:d2:9e:cc:76:f8:91:5b:da:81:42:de:bd:
         3d:74:59:df:12:b6:46:a5:c2:3c:08:ae:83:b1:7b:50:b8:a1:
         ad:c7:6c:8d:c2:4a:76:fb:a3:4c:60:ba:97:fc:3b:59:47:7f:
         21:91:5e:1a:34:b4:3c:bc:f3:2e:50:b1:62:ac:27:44:53:bc:
         ce:f4:e5:cf:fd:26:6f:4e:d3:1d:1c:32:ed:3e:22:78:4e:8d:
         2e:d2:64:41:d0:ff:0c:3b:6f:59:8d:96:71:b3:6d:e2:1b:65:
         33:29:e5:e6:5a:35:e7:2f:dd:2d:20:92:2f:85:43:7e:fd:80:
         d4:e0:92:1c
-----BEGIN CERTIFICATE-----
MIID9TCCAt2gAwIBAgICECQwDQYJKoZIhvcNAQELBQAwTjEnMCUGA1UECgweSW50
ZXJtZWRpYXRlIDEgdGxzLW8tbWF0aWMuY29tMSMwIQYDVQQDDBpUTFMtby1tYXRp
Yy1pbnRlcm1lZGlhdGUtMTAeFw0xNTAzMDIwNjQyNTBaFw0xNjAzMDEwNjQyNTBa
MGoxRjBEBgNVBAoMPUZ1bm55IEZyb2cgQVBJIHNlcnZpY2VzIGZvciBob3QgZG9n
IGRpc3RyaWJ1dGlvbiBhbmQgY2FyIHdhc2gxIDAeBgNVBAMMF3Rlc3QxNWEudGxz
LW8tbWF0aWMuY29tMIIBIjANBgkqhkiG9w0BAQEFAAOCAQ8AMIIBCgKCAQEAwA7t
1hzn5N36ntrDt3HcZZqi7m3/cfinVVm2pSxScGHj8yyJUy/7W61XCfsDz1s6l5gg
nDf//QMAcyaVay1iuMN7BgDKWoVHLKvzZpdyYr+oyqh0aDyg8G1luzfQpzH0SNen
he9sOxscNpXThno61G9G5TzZZNNN7uIVHab0HnFXOeQygNpQTr+44RVo7TUabEZJ
vaaji7z3WsW0QKTeBdl4pyA0pbxM+RbdSlK9Xlf6KiH7V0+gf9I+Z7SagqtXlvWF
HDU0r0c39l67x9k9Ux2DuZZ/ZMtLDZzsfmT279uIqNzxPa4Yr47LnSY19zmVr0Ik
M0ROeBh6rv+987wvZQIDAQABo4HAMIG9MAkGA1UdEwQCMAAwEwYDVR0lBAwwCgYI
KwYBBQUHAwEwOgYJYIZIAYb4QgENBC0WK1RMUy1PLU1hdGljIE5vIFZhbGlkYXRp
b24gQ2VydGlmaWNhdGUg8J+SsCAwHQYDVR0OBBYEFHbeulp88HjdoKLqPQ9fTZgH
4LkBMB8GA1UdIwQYMBaAFI9rH+edNVw81OobeaWDrf6XmovRMB8GA1UdEQQYMBaB
FGluZm9AdGxzLW8tbWF0aWMuY29tMA0GCSqGSIb3DQEBCwUAA4IBAQBHLdXLPU3s
eBKTy5YyTABH5YZlLgSoqUK3bvi1bd/Nkxe85MMDVnN24mNGiZ9avetnr5rJCPB6
yAR32nj/0f2w8/2tQRSR1+rXU/Um8n5VQwgHNlTjqTVwYUmFTUCXKxxIQPXQ0vrL
1vK/l6y35GeqXBIAk9Qr07a1KAL4wAr0Ujo6zGnSnsx2+JFb2oFC3r09dFnfErZG
pcI8CK6DsXtQuKGtx2yNwkp2+6NMYLqX/DtZR38hkV4aNLQ8vPMuULFirCdEU7zO
9OXP/SZvTtMdHDLtPiJ4To0u0mRB0P8MO29ZjZZxs23iG2UzKeXmWjXnL90tIJIv
hUN+/YDU4JIc
-----END CERTIFICATE-----
