Certificate:
    Data:
        Version: 3 (0x2)
        Serial Number: 4127 (0x101f)
    Signature Algorithm: sha256WithRSAEncryption
        Issuer: O=D&O TLS-O-MATIC CERTIFICATE AUTHORITY AB, CN=tls-o-matic.com
        Validity
            Not Before: Feb 15 18:47:37 2015 GMT
            Not After : Feb 15 18:47:37 2016 GMT
        Subject: O=We Challenge You, Inc, CN=test8.tls-o-matic.com
        Subject Public Key Info:
            Public Key Algorithm: rsaEncryption
                Public-Key: (2048 bit)
                Modulus:
                    00:c8:fb:99:0a:db:76:e1:cc:6f:bc:22:c7:41:f1:
                    94:fc:9c:f5:ce:97:10:cb:05:91:a4:1e:19:24:e7:
                    2c:90:96:32:8f:9b:c7:58:71:32:9a:18:15:5f:0e:
                    7e:fe:f5:0f:f6:17:4c:08:c4:54:ce:23:80:82:34:
                    72:9a:02:d4:3d:9e:0a:9f:f2:cc:ff:7a:e9:f7:31:
                    8a:a4:ef:c3:ff:7c:6e:98:02:f8:f5:37:ed:fe:e5:
                    d7:f6:70:7a:9a:b6:b6:72:c2:a4:e7:75:15:fe:6b:
                    fb:7e:76:a3:06:2f:b7:06:bf:c9:10:b9:4e:8f:d3:
                    2d:28:96:9d:d1:15:50:d7:83:3a:99:5e:1c:22:62:
                    f4:76:4e:89:8a:ab:eb:1d:c7:19:54:03:63:ce:5d:
                    5c:1a:0b:30:e7:90:19:98:d0:50:fb:93:e3:2c:2a:
                    ba:c3:92:e4:cb:d0:32:2c:e3:ef:59:46:bd:1a:d8:
                    d4:29:09:4b:df:7d:76:c0:84:15:28:6c:38:03:d1:
                    a5:6c:14:09:f0:1d:a2:d2:a2:4e:05:f3:d3:58:56:
                    b3:a2:b3:f5:af:98:3a:ff:13:d3:e7:0e:be:13:10:
                    06:62:bd:14:79:31:ed:13:25:a8:c8:18:5d:c9:15:
                    dc:90:9b:2b:b1:f5:f9:d8:d7:cf:17:df:a9:22:70:
                    0a:85
                Exponent: 65537 (0x10001)
        X509v3 extensions:
            X509v3 Basic Constraints: 
                CA:FALSE
            X509v3 Extended Key Usage: 
                TLS Web Server Authentication
            Netscape Comment: 
                TLS-O-Matic No Validation Certificate 💰 
            X509v3 Subject Key Identifier: 
                DD:D5:45:FE:51:61:4D:CC:9B:8B:5D:C3:2C:DD:84:0E:BD:DD:47:FC
            X509v3 Authority Key Identifier: 
                keyid:1D:6D:58:5B:49:3A:CC:00:2B:22:20:40:42:56:DD:C7:EB:B2:73:45

            X509v3 Subject Alternative Name: 
                DNS:tls-o-matic.com
    Signature Algorithm: sha256WithRSAEncryption
         03:01:e2:c9:2d:08:c9:2e:e1:f3:09:45:a5:e3:66:27:ac:92:
         3b:91:a5:c3:56:18:4e:ca:db:6d:e5:53:79:fb:e3:b5:65:ba:
         32:ee:ea:87:e7:5f:b3:53:f0:1c:bf:e6:89:14:36:5e:71:ed:
         f1:03:12:ff:5a:0a:01:09:ad:57:7c:e9:a6:f5:09:cd:32:0f:
         7c:e2:aa:c0:cb:ed:90:8f:c4:d4:7f:a7:53:95:c4:35:df:b9:
         95:1e:26:33:e0:58:c1:4f:b0:b4:bc:b6:e6:1a:7f:64:6e:a4:
         b3:75:58:bd:5f:b4:4f:02:69:c4:6a:3e:20:35:c2:47:2a:9a:
         ca:c7:1e:16:cb:1a:92:02:2c:3a:12:f7:68:00:af:61:6e:2a:
         14:c2:fc:5e:f2:72:b4:71:f0:85:40:78:f0:57:72:6d:9f:63:
         e2:64:f6:81:bb:7e:f7:39:97:5d:e5:97:a8:e9:e8:10:88:e5:
         69:b0:3c:45:75:9a:6b:39:1f:d0:a2:3e:5a:24:6d:e1:0b:df:
         f7:9e:ad:f6:55:75:3f:da:01:50:d3:08:ba:db:23:83:a1:d8:
         76:38:11:5d:60:9a:cb:2a:12:af:7f:6d:a6:2a:76:17:60:07:
         81:f1:bb:1b:a9:ad:a0:36:b4:3d:55:49:fa:45:59:8f:07:61:
         b5:71:71:b3
-----BEGIN CERTIFICATE-----
MIIDxTCCAq2gAwIBAgICEB8wDQYJKoZIhvcNAQELBQAwTTExMC8GA1UEChQoRCZP
IFRMUy1PLU1BVElDIENFUlRJRklDQVRFIEFVVEhPUklUWSBBQjEYMBYGA1UEAxMP
dGxzLW8tbWF0aWMuY29tMB4XDTE1MDIxNTE4NDczN1oXDTE2MDIxNTE4NDczN1ow
QDEeMBwGA1UECgwVV2UgQ2hhbGxlbmdlIFlvdSwgSW5jMR4wHAYDVQQDDBV0ZXN0
OC50bHMtby1tYXRpYy5jb20wggEiMA0GCSqGSIb3DQEBAQUAA4IBDwAwggEKAoIB
AQDI+5kK23bhzG+8IsdB8ZT8nPXOlxDLBZGkHhkk5yyQljKPm8dYcTKaGBVfDn7+
9Q/2F0wIxFTOI4CCNHKaAtQ9ngqf8sz/eun3MYqk78P/fG6YAvj1N+3+5df2cHqa
trZywqTndRX+a/t+dqMGL7cGv8kQuU6P0y0olp3RFVDXgzqZXhwiYvR2TomKq+sd
xxlUA2POXVwaCzDnkBmY0FD7k+MsKrrDkuTL0DIs4+9ZRr0a2NQpCUvffXbAhBUo
bDgD0aVsFAnwHaLSok4F89NYVrOis/WvmDr/E9PnDr4TEAZivRR5Me0TJajIGF3J
FdyQmyux9fnY188X36kicAqFAgMBAAGjgbswgbgwCQYDVR0TBAIwADATBgNVHSUE
DDAKBggrBgEFBQcDATA6BglghkgBhvhCAQ0ELRYrVExTLU8tTWF0aWMgTm8gVmFs
aWRhdGlvbiBDZXJ0aWZpY2F0ZSDwn5KwIDAdBgNVHQ4EFgQU3dVF/lFhTcybi13D
LN2EDr3dR/wwHwYDVR0jBBgwFoAUHW1YW0k6zAArIiBAQlbdx+uyc0UwGgYDVR0R
BBMwEYIPdGxzLW8tbWF0aWMuY29tMA0GCSqGSIb3DQEBCwUAA4IBAQADAeLJLQjJ
LuHzCUWl42YnrJI7kaXDVhhOyttt5VN5++O1Zboy7uqH51+zU/Acv+aJFDZece3x
AxL/WgoBCa1XfOmm9QnNMg984qrAy+2Qj8TUf6dTlcQ137mVHiYz4FjBT7C0vLbm
Gn9kbqSzdVi9X7RPAmnEaj4gNcJHKprKxx4WyxqSAiw6EvdoAK9hbioUwvxe8nK0
cfCFQHjwV3Jtn2PiZPaBu373OZdd5Zeo6egQiOVpsDxFdZprOR/Qoj5aJG3hC9/3
nq32VXU/2gFQ0wi62yODodh2OBFdYJrLKhKvf22mKnYXYAeB8bsbqa2gNrQ9VUn6
RVmPB2G1cXGz
-----END CERTIFICATE-----
