Certificate:
    Data:
        Version: 3 (0x2)
        Serial Number: 4125 (0x101d)
    Signature Algorithm: sha256WithRSAEncryption
        Issuer: O=Intermediate 3 tls-o-matic.com, CN=TLS-o-matic-intermediate-3
        Validity
            Not Before: Mar  1 19:51:43 2015 GMT
            Not After : Feb 29 19:51:43 2016 GMT
        Subject: O=Do it yourself, CN=test11.tls-o-matic.com
        Subject Public Key Info:
            Public Key Algorithm: rsaEncryption
                Public-Key: (2048 bit)
                Modulus:
                    00:c5:7a:02:48:2d:83:d6:15:13:2c:a5:b9:2b:05:
                    30:af:6e:a0:06:3c:61:a1:e2:eb:13:db:ce:a5:49:
                    0b:9f:be:15:90:b4:2d:9c:0c:85:80:52:91:4f:18:
                    f0:53:26:02:67:97:cb:1f:47:44:f1:8e:b0:a6:ef:
                    f7:b6:4c:5f:f4:d9:cb:95:8c:01:22:55:57:a9:c8:
                    ba:d7:45:0e:4b:82:d9:23:ce:6c:1f:d4:4d:c6:41:
                    b9:50:17:7b:1e:33:5a:0a:ba:ec:93:3a:23:8e:f1:
                    7a:a4:c3:7b:a2:a1:cf:fa:d7:3f:d8:13:5c:22:14:
                    14:8a:d8:b3:a4:5c:8d:2b:de:5b:96:9c:85:2a:3a:
                    13:9c:bd:a3:92:9e:fa:60:93:e2:2a:69:b6:ee:01:
                    a3:12:35:fa:92:ca:03:79:4a:3c:4a:c6:bc:34:80:
                    0a:7b:c5:1e:8c:f8:32:8a:bd:84:e4:4f:f2:95:84:
                    0c:2a:99:13:fb:c8:6d:1d:40:44:62:11:9a:1e:22:
                    49:7b:ba:e5:cd:74:15:8b:22:1c:27:e1:77:bb:cb:
                    a5:e9:3e:fa:31:d8:11:ce:a8:98:a5:80:8e:bb:57:
                    f6:c9:ce:1e:16:a9:e4:d0:5f:03:41:1c:0d:07:6e:
                    bd:da:75:f6:d0:e8:6c:da:9f:4d:dd:07:bd:d7:a6:
                    ec:79
                Exponent: 65537 (0x10001)
        X509v3 extensions:
            X509v3 Basic Constraints: 
                CA:FALSE
            X509v3 Extended Key Usage: 
                TLS Web Server Authentication
            Netscape Comment: 
                TLS-O-Matic No Validation Certificate 💰 
            X509v3 Subject Key Identifier: 
                1E:41:50:B1:67:19:D1:5B:19:1B:5A:5A:A8:E0:18:34:D2:22:D4:08
            X509v3 Authority Key Identifier: 
                keyid:E0:BB:81:ED:46:79:DE:02:CC:83:1F:8A:96:A3:E7:64:38:90:65:DB

            X509v3 Subject Alternative Name: 
                email:info@tls-o-matic.com
    Signature Algorithm: sha256WithRSAEncryption
         25:9e:87:27:12:07:b7:c6:f3:d7:a6:8b:9c:d4:ce:1f:b9:22:
         db:5e:ff:1d:38:2b:03:9e:3d:bf:f8:ce:56:f0:81:f8:78:c8:
         a0:74:9e:a3:4d:d1:89:b8:69:88:8e:56:96:a3:46:9a:e6:d2:
         9b:0a:82:81:f1:48:2d:49:85:e2:0f:de:93:58:73:d2:c4:89:
         c7:b7:46:f1:13:bc:66:78:9e:08:51:df:6c:99:bd:78:44:61:
         de:de:f5:9b:5e:d5:ad:7d:de:c8:53:5b:29:c1:7e:d2:ce:1e:
         83:cd:f8:dd:50:ce:93:d0:f7:2e:26:72:39:e3:98:18:b6:40:
         79:2f:75:00:dc:8b:24:d4:7f:f6:15:a0:83:55:ab:24:9e:f2:
         b1:0f:e7:a2:59:cf:1c:02:c2:48:4c:6e:1b:b0:db:02:42:90:
         e1:df:77:15:ae:b6:cb:12:c5:05:e9:43:63:3f:64:ea:18:a7:
         4e:53:80:ed:7a:77:d4:62:8d:63:54:0e:cc:a1:4b:a1:4e:e1:
         49:49:ab:e5:f6:63:44:60:10:6b:f6:0d:79:e3:2f:8b:16:aa:
         b7:9e:83:a6:7b:4e:80:35:55:79:05:6e:08:55:f0:3b:ba:75:
         be:37:72:5f:2a:11:5a:1d:d2:bc:2b:b3:b0:7e:18:fd:ce:ad:
         10:45:e1:48
-----BEGIN CERTIFICATE-----
MIIDxTCCAq2gAwIBAgICEB0wDQYJKoZIhvcNAQELBQAwTjEnMCUGA1UECgweSW50
ZXJtZWRpYXRlIDMgdGxzLW8tbWF0aWMuY29tMSMwIQYDVQQDDBpUTFMtby1tYXRp
Yy1pbnRlcm1lZGlhdGUtMzAeFw0xNTAzMDExOTUxNDNaFw0xNjAyMjkxOTUxNDNa
MDoxFzAVBgNVBAoMDkRvIGl0IHlvdXJzZWxmMR8wHQYDVQQDDBZ0ZXN0MTEudGxz
LW8tbWF0aWMuY29tMIIBIjANBgkqhkiG9w0BAQEFAAOCAQ8AMIIBCgKCAQEAxXoC
SC2D1hUTLKW5KwUwr26gBjxhoeLrE9vOpUkLn74VkLQtnAyFgFKRTxjwUyYCZ5fL
H0dE8Y6wpu/3tkxf9NnLlYwBIlVXqci610UOS4LZI85sH9RNxkG5UBd7HjNaCrrs
kzojjvF6pMN7oqHP+tc/2BNcIhQUitizpFyNK95blpyFKjoTnL2jkp76YJPiKmm2
7gGjEjX6ksoDeUo8Ssa8NIAKe8UejPgyir2E5E/ylYQMKpkT+8htHUBEYhGaHiJJ
e7rlzXQViyIcJ+F3u8ul6T76MdgRzqiYpYCOu1f2yc4eFqnk0F8DQRwNB2692nX2
0Ohs2p9N3Qe916bseQIDAQABo4HAMIG9MAkGA1UdEwQCMAAwEwYDVR0lBAwwCgYI
KwYBBQUHAwEwOgYJYIZIAYb4QgENBC0WK1RMUy1PLU1hdGljIE5vIFZhbGlkYXRp
b24gQ2VydGlmaWNhdGUg8J+SsCAwHQYDVR0OBBYEFB5BULFnGdFbGRtaWqjgGDTS
ItQIMB8GA1UdIwQYMBaAFOC7ge1Ged4CzIMfipaj52Q4kGXbMB8GA1UdEQQYMBaB
FGluZm9AdGxzLW8tbWF0aWMuY29tMA0GCSqGSIb3DQEBCwUAA4IBAQAlnocnEge3
xvPXpouc1M4fuSLbXv8dOCsDnj2/+M5W8IH4eMigdJ6jTdGJuGmIjlaWo0aa5tKb
CoKB8UgtSYXiD96TWHPSxInHt0bxE7xmeJ4IUd9smb14RGHe3vWbXtWtfd7IU1sp
wX7Szh6DzfjdUM6T0PcuJnI545gYtkB5L3UA3Isk1H/2FaCDVasknvKxD+eiWc8c
AsJITG4bsNsCQpDh33cVrrbLEsUF6UNjP2TqGKdOU4DtenfUYo1jVA7MoUuhTuFJ
Savl9mNEYBBr9g154y+LFqq3noOme06ANVV5BW4IVfA7unW+N3JfKhFaHdK8K7Ow
fhj9zq0QReFI
-----END CERTIFICATE-----
