Certificate:
    Data:
        Version: 3 (0x2)
        Serial Number: 4133 (0x1025)
    Signature Algorithm: sha256WithRSAEncryption
        Issuer: O=Intermediate 1 tls-o-matic.com, CN=TLS-o-matic-intermediate-1
        Validity
            Not Before: Mar  2 06:42:56 2015 GMT
            Not After : Mar  1 06:42:56 2016 GMT
        Subject: O=Happy Hopper Hip Hop Music (and API services) Inc , CN=test15b.tls-o-matic.com
        Subject Public Key Info:
            Public Key Algorithm: rsaEncryption
                Public-Key: (2048 bit)
                Modulus:
                    00:c5:96:4b:4b:1c:96:4f:45:46:ad:84:7c:de:5b:
                    1e:e4:9e:09:84:46:79:5e:64:50:6a:cb:ee:18:a5:
                    33:64:37:06:09:7d:25:62:bb:11:c2:ca:5f:3a:4a:
                    1d:f9:0e:04:12:e5:cd:81:23:61:8c:07:9f:6a:5e:
                    78:ea:2c:5f:7d:b4:21:96:19:5a:c7:f8:f3:54:31:
                    59:ad:43:b2:d0:f3:82:eb:cc:69:f7:7a:43:04:b7:
                    96:00:73:ab:fb:16:a7:32:e9:aa:6b:0c:94:4e:15:
                    97:16:d6:b8:ab:8b:76:1b:a9:20:d5:32:d3:82:30:
                    94:33:7c:94:92:57:b5:79:bc:d2:93:d9:33:ef:0a:
                    20:a8:1e:0d:b3:95:cc:a8:8f:9e:19:b1:29:64:fc:
                    d3:00:7b:75:7b:42:49:eb:7e:38:d9:15:80:06:81:
                    df:ab:6d:bb:49:12:34:cb:21:07:59:84:a8:6d:0f:
                    78:e3:7a:9f:ce:65:5e:3f:81:4d:0e:9e:16:2e:10:
                    b7:66:f0:ab:1f:b6:b2:37:fe:b2:a3:b6:c3:a9:f4:
                    16:a7:cc:58:d3:3d:67:e6:88:a2:b1:d8:b9:c3:2d:
                    fd:18:49:d9:b6:10:bb:64:8b:87:1c:e4:70:1e:5e:
                    fb:87:a7:41:10:1e:84:a0:97:70:81:c6:e9:95:e8:
                    b4:b3
                Exponent: 65537 (0x10001)
        X509v3 extensions:
            X509v3 Basic Constraints: 
                CA:FALSE
            X509v3 Extended Key Usage: 
                TLS Web Server Authentication
            Netscape Comment: 
                TLS-O-Matic No Validation Certificate 💰 
            X509v3 Subject Key Identifier: 
                9C:C0:E0:3D:74:67:06:6B:E4:ED:0B:A3:DE:31:9E:BA:07:D5:F2:14
            X509v3 Authority Key Identifier: 
                keyid:8F:6B:1F:E7:9D:35:5C:3C:D4:EA:1B:79:A5:83:AD:FE:97:9A:8B:D1

            X509v3 Subject Alternative Name: 
                email:info@tls-o-matic.com
    Signature Algorithm: sha256WithRSAEncryption
         38:2c:97:5d:d0:0a:fe:91:8d:b6:9a:68:7e:f2:9f:b2:f6:23:
         e7:93:4b:70:8e:7c:38:c4:89:b6:c1:f2:de:6d:1c:21:14:88:
         ac:fa:58:95:1a:92:a9:fe:19:04:79:9a:23:9e:88:19:5b:be:
         ef:6b:fa:46:81:1a:c2:13:a2:45:24:78:6d:a5:3a:68:ac:37:
         ca:e1:f9:03:92:49:04:91:85:e3:ca:8a:63:61:eb:2f:ac:ab:
         cb:90:8f:41:a7:2d:97:c0:4d:3f:f2:49:d0:61:04:c5:8c:85:
         c1:00:1f:c0:9b:a1:ae:bd:38:2e:9a:e2:36:01:48:44:20:63:
         26:5c:41:11:ea:9c:f6:5d:cb:d3:3d:7c:8c:89:d3:92:d2:44:
         57:fc:99:84:35:2c:88:ef:98:86:30:e2:76:96:d5:bf:73:d0:
         f3:e7:b6:02:10:cc:d3:de:b2:a5:f5:83:9d:d4:54:c8:2c:80:
         83:00:67:12:f5:64:fb:fd:da:0d:12:37:37:8a:51:5a:b7:6a:
         fc:2a:1a:7d:c0:1b:95:97:fd:c9:a2:bd:15:e6:1e:cb:8b:bc:
         bc:ac:c8:62:bc:3b:b4:0e:86:c4:49:7a:87:16:28:68:06:c1:
         5f:d1:35:7f:75:2e:46:3d:61:ca:ab:2b:e0:38:bf:b4:3d:60:
         c7:eb:a7:59
-----BEGIN CERTIFICATE-----
MIID6jCCAtKgAwIBAgICECUwDQYJKoZIhvcNAQELBQAwTjEnMCUGA1UECgweSW50
ZXJtZWRpYXRlIDEgdGxzLW8tbWF0aWMuY29tMSMwIQYDVQQDDBpUTFMtby1tYXRp
Yy1pbnRlcm1lZGlhdGUtMTAeFw0xNTAzMDIwNjQyNTZaFw0xNjAzMDEwNjQyNTZa
MF8xOzA5BgNVBAoMMkhhcHB5IEhvcHBlciBIaXAgSG9wIE11c2ljIChhbmQgQVBJ
IHNlcnZpY2VzKSBJbmMgMSAwHgYDVQQDDBd0ZXN0MTViLnRscy1vLW1hdGljLmNv
bTCCASIwDQYJKoZIhvcNAQEBBQADggEPADCCAQoCggEBAMWWS0sclk9FRq2EfN5b
HuSeCYRGeV5kUGrL7hilM2Q3Bgl9JWK7EcLKXzpKHfkOBBLlzYEjYYwHn2peeOos
X320IZYZWsf481QxWa1DstDzguvMafd6QwS3lgBzq/sWpzLpqmsMlE4VlxbWuKuL
dhupINUy04IwlDN8lJJXtXm80pPZM+8KIKgeDbOVzKiPnhmxKWT80wB7dXtCSet+
ONkVgAaB36ttu0kSNMshB1mEqG0PeON6n85lXj+BTQ6eFi4Qt2bwqx+2sjf+sqO2
w6n0FqfMWNM9Z+aIorHYucMt/RhJ2bYQu2SLhxzkcB5e+4enQRAehKCXcIHG6ZXo
tLMCAwEAAaOBwDCBvTAJBgNVHRMEAjAAMBMGA1UdJQQMMAoGCCsGAQUFBwMBMDoG
CWCGSAGG+EIBDQQtFitUTFMtTy1NYXRpYyBObyBWYWxpZGF0aW9uIENlcnRpZmlj
YXRlIPCfkrAgMB0GA1UdDgQWBBScwOA9dGcGa+TtC6PeMZ66B9XyFDAfBgNVHSME
GDAWgBSPax/nnTVcPNTqG3mlg63+l5qL0TAfBgNVHREEGDAWgRRpbmZvQHRscy1v
LW1hdGljLmNvbTANBgkqhkiG9w0BAQsFAAOCAQEAOCyXXdAK/pGNtppofvKfsvYj
55NLcI58OMSJtsHy3m0cIRSIrPpYlRqSqf4ZBHmaI56IGVu+72v6RoEawhOiRSR4
baU6aKw3yuH5A5JJBJGF48qKY2HrL6yry5CPQactl8BNP/JJ0GEExYyFwQAfwJuh
rr04LpriNgFIRCBjJlxBEeqc9l3L0z18jInTktJEV/yZhDUsiO+YhjDidpbVv3PQ
8+e2AhDM096ypfWDndRUyCyAgwBnEvVk+/3aDRI3N4pRWrdq/CoafcAblZf9yaK9
FeYey4u8vKzIYrw7tA6GxEl6hxYoaAbBX9E1f3UuRj1hyqsr4Di/tD1gx+unWQ==
-----END CERTIFICATE-----
