Certificate:
    Data:
        Version: 3 (0x2)
        Serial Number: 4114 (0x1012)
    Signature Algorithm: sha256WithRSAEncryption
        Issuer: O=D&O Trustworth Certificates - "Trust Us For Your Security", CN=CA for tls-o-matic.com
        Validity
            Not Before: Mar  1 19:28:43 2015 GMT
            Not After : Feb 29 19:28:43 2016 GMT
        Subject: O=Can't Make Up My Mind Inc, CN=*.tls-o-matic.com
        Subject Public Key Info:
            Public Key Algorithm: rsaEncryption
                Public-Key: (2048 bit)
                Modulus:
                    00:bb:1d:44:3f:cb:74:b3:11:6a:79:90:a4:dd:f0:
                    42:3e:da:50:1b:60:ef:8d:cd:28:ac:9b:4d:2b:04:
                    f7:51:09:db:05:13:f0:81:21:5b:40:07:84:28:ef:
                    17:5f:10:4b:b3:ad:0f:3a:2f:0b:51:dd:d9:41:57:
                    ca:01:4e:56:cb:c9:26:01:46:03:61:94:b0:c4:f4:
                    07:6b:0f:0d:b9:1a:3a:f6:14:72:7d:fb:a2:63:5c:
                    9f:39:1d:30:fc:1b:3d:66:cb:43:db:9f:7e:de:2d:
                    15:9f:3c:4e:26:3c:ec:33:b8:a1:22:62:d9:1f:1e:
                    e2:63:75:66:ef:69:e2:86:7c:b8:60:35:04:66:72:
                    2b:d7:71:76:dd:70:97:79:df:b4:b1:09:b9:7a:a4:
                    cb:2f:26:a5:d1:ba:a7:2d:50:a5:3f:27:92:f3:36:
                    fb:d5:e5:d4:c7:a9:db:b3:5b:ec:e1:f2:30:b0:d1:
                    54:fa:e1:f8:50:a2:04:fe:f8:48:ca:5a:63:1b:24:
                    10:d8:e5:7a:cd:65:b9:03:c9:b5:d8:97:4f:c5:b8:
                    47:af:f2:c7:cd:fc:8d:b2:6f:96:16:c9:26:68:c7:
                    25:a8:6c:cb:55:b3:74:24:ae:06:6f:76:33:e7:50:
                    f5:ea:1a:32:1c:63:77:6b:08:18:42:33:8d:8a:ed:
                    3d:b9
                Exponent: 65537 (0x10001)
        X509v3 extensions:
            X509v3 Basic Constraints: 
                CA:FALSE
            X509v3 Extended Key Usage: 
                TLS Web Server Authentication
            Netscape Comment: 
                TLS-O-Matic No Validation Certificate 💰 
            X509v3 Subject Key Identifier: 
                6A:F7:A2:BE:A2:E9:D1:4C:0A:9F:46:CE:DF:F3:36:FD:8A:43:F7:EE
            X509v3 Authority Key Identifier: 
                keyid:04:D6:A2:1A:00:DA:5E:17:88:CF:31:C6:CA:A1:A3:D3:F7:9F:7B:2A

            X509v3 Subject Alternative Name: 
                DNS:*.test.tls-o-matic.com, DNS:*.tls-o-matic.com, DNS:*.beta.tls-o-matic.com
    Signature Algorithm: sha256WithRSAEncryption
         a0:ac:33:86:51:d8:b8:70:1b:b2:1a:63:4e:2f:73:04:40:3a:
         de:b9:bd:8b:86:d8:1b:6d:e7:5f:72:85:97:9a:9b:cc:98:a7:
         ef:b3:53:31:3b:e9:ca:ce:8f:f7:2a:2d:ce:c4:cc:dc:69:54:
         10:c1:2e:9e:00:e7:5f:f0:07:71:b9:81:2a:34:39:eb:e0:8c:
         25:5e:44:a8:c5:64:3e:17:82:23:79:3a:9e:f6:a7:c3:8f:18:
         4d:61:9d:d1:e5:b9:cd:87:aa:30:7d:d1:19:a9:b6:9b:56:5e:
         cc:ba:09:28:8b:df:22:53:65:f3:39:1a:79:96:8a:fa:2a:a3:
         2b:bd:2d:2a:41:7b:e4:20:43:2b:43:80:87:fb:fc:4f:98:c7:
         61:7f:e2:74:62:d8:2c:81:3e:26:cd:06:70:35:7f:0b:b7:99:
         4c:42:98:4b:29:8f:8f:54:d7:e9:8f:3c:24:59:83:fb:df:5d:
         26:bf:52:bc:c0:8c:99:d2:d9:04:82:05:3e:9d:90:76:ec:07:
         d4:30:7c:23:a4:bb:5c:5a:aa:9e:04:a7:9b:4f:f7:44:86:05:
         f0:08:70:d7:4c:d9:a2:94:dc:62:89:ed:e9:9c:46:e9:be:b6:
         03:89:d6:b6:46:6d:b8:19:08:49:c4:13:5b:4c:8a:1f:08:28:
         9b:69:f8:4e:c8:5f:52:da:24:52:50:28:5f:44:94:33:92:d4:
         f7:a0:d8:e3:44:34:9b:8d:a9:a2:10:11:f9:e8:36:ad:bb:81:
         22:29:96:02:ae:67:05:9a:fa:29:78:95:ca:8b:9a:30:3e:e6:
         10:b8:ec:f9:8a:54:89:28:57:11:10:14:1d:33:95:95:08:8c:
         c3:93:fe:11:d9:60:2d:db:2f:b1:da:92:95:c2:fc:7e:4b:27:
         ef:cd:65:d2:cf:3b:04:cb:99:04:54:26:1d:bf:b6:a7:1a:26:
         3f:bc:20:bd:e0:a7:32:2c:97:e3:ec:ee:1a:70:dc:06:6c:18:
         a7:21:06:ab:91:ef:b1:79:54:92:ce:4b:9f:bb:ed:99:a3:68:
         e5:e8:fe:be:32:bb:e0:05:15:42:b6:d7:69:d5:5b:68:09:93:
         84:e9:5a:0e:4c:cb:13:9a:83:9a:bf:52:2b:09:d8:b7:db:45:
         de:15:33:3c:2e:eb:97:d4:5c:3a:d7:b7:8e:12:d4:a4:67:c6:
         e4:72:59:b4:3b:36:ae:33:41:2e:16:7f:13:e0:27:85:5d:a2:
         70:ab:4b:0a:14:d8:35:52:8b:7b:48:62:87:91:31:48:9f:12:
         65:a2:22:a3:75:9e:03:0b:23:76:50:5e:87:01:78:8f:c0:b0:
         7c:12:1d:5f:d6:86:57:c4
-----BEGIN CERTIFICATE-----
MIIFEDCCAvigAwIBAgICEBIwDQYJKoZIhvcNAQELBQAwZjFDMEEGA1UECgw6RCZP
IFRydXN0d29ydGggQ2VydGlmaWNhdGVzIC0gIlRydXN0IFVzIEZvciBZb3VyIFNl
Y3VyaXR5IjEfMB0GA1UEAwwWQ0EgZm9yIHRscy1vLW1hdGljLmNvbTAeFw0xNTAz
MDExOTI4NDNaFw0xNjAyMjkxOTI4NDNaMEAxIjAgBgNVBAoMGUNhbid0IE1ha2Ug
VXAgTXkgTWluZCBJbmMxGjAYBgNVBAMMESoudGxzLW8tbWF0aWMuY29tMIIBIjAN
BgkqhkiG9w0BAQEFAAOCAQ8AMIIBCgKCAQEAux1EP8t0sxFqeZCk3fBCPtpQG2Dv
jc0orJtNKwT3UQnbBRPwgSFbQAeEKO8XXxBLs60POi8LUd3ZQVfKAU5Wy8kmAUYD
YZSwxPQHaw8NuRo69hRyffuiY1yfOR0w/Bs9ZstD259+3i0VnzxOJjzsM7ihImLZ
Hx7iY3Vm72nihny4YDUEZnIr13F23XCXed+0sQm5eqTLLyal0bqnLVClPyeS8zb7
1eXUx6nbs1vs4fIwsNFU+uH4UKIE/vhIylpjGyQQ2OV6zWW5A8m12JdPxbhHr/LH
zfyNsm+WFskmaMclqGzLVbN0JK4Gb3Yz51D16hoyHGN3awgYQjONiu09uQIDAQAB
o4HtMIHqMAkGA1UdEwQCMAAwEwYDVR0lBAwwCgYIKwYBBQUHAwEwOgYJYIZIAYb4
QgENBC0WK1RMUy1PLU1hdGljIE5vIFZhbGlkYXRpb24gQ2VydGlmaWNhdGUg8J+S
sCAwHQYDVR0OBBYEFGr3or6i6dFMCp9Gzt/zNv2KQ/fuMB8GA1UdIwQYMBaAFATW
ohoA2l4XiM8xxsqho9P3n3sqMEwGA1UdEQRFMEOCFioudGVzdC50bHMtby1tYXRp
Yy5jb22CESoudGxzLW8tbWF0aWMuY29tghYqLmJldGEudGxzLW8tbWF0aWMuY29t
MA0GCSqGSIb3DQEBCwUAA4ICAQCgrDOGUdi4cBuyGmNOL3MEQDreub2Lhtgbbedf
coWXmpvMmKfvs1MxO+nKzo/3Ki3OxMzcaVQQwS6eAOdf8AdxuYEqNDnr4IwlXkSo
xWQ+F4IjeTqe9qfDjxhNYZ3R5bnNh6owfdEZqbabVl7Mugkoi98iU2XzORp5lor6
KqMrvS0qQXvkIEMrQ4CH+/xPmMdhf+J0YtgsgT4mzQZwNX8Lt5lMQphLKY+PVNfp
jzwkWYP7310mv1K8wIyZ0tkEggU+nZB27AfUMHwjpLtcWqqeBKebT/dEhgXwCHDX
TNmilNxiie3pnEbpvrYDida2Rm24GQhJxBNbTIofCCibafhOyF9S2iRSUChfRJQz
ktT3oNjjRDSbjamiEBH56Datu4EiKZYCrmcFmvopeJXKi5owPuYQuOz5ilSJKFcR
EBQdM5WVCIzDk/4R2WAt2y+x2pKVwvx+SyfvzWXSzzsEy5kEVCYdv7anGiY/vCC9
4KcyLJfj7O4acNwGbBinIQarke+xeVSSzkufu+2Zo2jl6P6+MrvgBRVCttdp1Vto
CZOE6VoOTMsTmoOav1IrCdi320XeFTM8LuuX1Fw617eOEtSkZ8bkclm0OzauM0Eu
Fn8T4CeFXaJwq0sKFNg1Uot7SGKHkTFInxJloiKjdZ4DCyN2UF6HAXiPwLB8Eh1f
1oZXxA==
-----END CERTIFICATE-----
