Certificate:
    Data:
        Version: 3 (0x2)
        Serial Number: 4118 (0x1016)
    Signature Algorithm: md5WithRSAEncryption
        Issuer: O=D&O Trustworth Certificates - "Trust Us For Your Security", CN=CA for tls-o-matic.com
        Validity
            Not Before: Jan  1 01:28:28 1992 GMT
            Not After : Apr  1 01:01:01 2035 GMT
        Subject: O=MD5 was good enough in the 90's, CN=test9.tls-o-matic.com
        Subject Public Key Info:
            Public Key Algorithm: rsaEncryption
                Public-Key: (512 bit)
                Modulus:
                    00:b1:63:ad:72:fe:8a:fa:03:97:14:d3:fc:da:70:
                    46:b8:39:a6:b1:15:7e:4d:3b:4a:81:20:89:6b:2c:
                    b0:47:b7:76:5a:94:53:36:86:6b:47:e0:8c:1e:79:
                    51:8e:6e:bd:d8:23:b2:a9:48:60:9d:7c:56:8a:5e:
                    c2:d4:0b:0c:df
                Exponent: 65537 (0x10001)
        X509v3 extensions:
            X509v3 Basic Constraints: 
                CA:FALSE
            X509v3 Extended Key Usage: 
                TLS Web Server Authentication
            Netscape Comment: 
                TLS-O-Matic No Validation Certificate 💰 
            X509v3 Subject Key Identifier: 
                3F:16:5B:0D:BD:3D:48:38:4C:C0:66:56:FE:5B:63:17:E0:BA:CE:74
            X509v3 Authority Key Identifier: 
                keyid:04:D6:A2:1A:00:DA:5E:17:88:CF:31:C6:CA:A1:A3:D3:F7:9F:7B:2A

            X509v3 Subject Alternative Name: 
                DNS:tls-o-matic.com
    Signature Algorithm: md5WithRSAEncryption
         b5:bc:1e:b0:fc:7b:8c:4d:34:22:b7:33:2a:b0:a4:12:f6:81:
         62:d5:57:7a:a8:3c:9e:17:a9:e2:ab:23:1b:92:f4:5e:1b:b6:
         3d:69:9f:ad:53:a1:8a:de:35:0c:8b:3a:2e:6a:d1:32:dd:02:
         a5:12:ee:1a:5e:38:2e:80:c1:6f:8a:9a:b6:fd:8b:b0:4a:23:
         4e:63:1a:49:5c:75:b1:df:07:14:3d:ef:a9:6f:ba:11:af:80:
         c8:0b:2b:62:43:fc:a8:f1:11:52:f4:a2:45:04:2c:ea:5b:6f:
         c0:6d:0e:4b:25:cf:e8:08:ad:33:14:00:56:6d:06:e4:2a:f6:
         26:bb:cb:66:c3:e8:45:bc:5c:4f:67:1c:1a:45:85:30:1d:fd:
         93:80:1f:36:1e:f6:b0:bf:84:23:8d:ac:79:77:1b:06:69:b9:
         e6:be:47:52:98:4e:11:99:b1:d4:c1:0c:ba:9d:e7:34:20:b3:
         27:94:e7:1f:36:85:68:5c:fe:f0:7f:65:ae:5a:e3:e9:7e:ea:
         51:98:66:ec:f9:83:45:39:a5:91:8e:1e:43:71:5c:b8:ed:16:
         44:70:2d:9a:eb:e1:34:13:d6:3e:b3:be:48:fb:5d:64:1f:fc:
         1e:bb:9d:d4:c8:95:46:d7:f4:f8:63:79:a5:a0:41:d8:ce:e1:
         7b:79:12:45:92:8f:72:86:75:21:14:03:89:c9:76:93:68:94:
         35:99:54:83:e4:bf:95:f6:02:4f:ca:04:73:ad:4a:5b:24:6a:
         ea:5d:5e:b4:c1:9f:02:8d:a7:1f:08:43:04:1f:f9:07:4c:72:
         77:d7:2a:90:f2:ac:9d:c4:6f:a3:31:89:34:55:80:59:6a:49:
         0c:73:b4:98:ab:23:fc:60:9c:37:56:4a:26:3d:8f:49:7f:35:
         65:f3:49:49:dc:87:2d:0c:73:9e:a3:71:b4:80:c1:76:af:ef:
         7d:39:16:c4:34:ef:b1:48:35:b8:12:16:9f:f3:88:e0:ab:24:
         e2:af:72:b5:ba:96:0e:d8:b9:11:8b:b8:d4:27:56:43:08:14:
         c3:a0:91:86:97:cc:a4:81:95:c1:5d:76:53:00:91:25:18:a2:
         51:4f:f2:a4:92:8c:e1:14:76:a9:70:f4:01:c4:15:e2:a5:ab:
         58:f7:88:06:fc:ad:b7:f4:da:8f:3c:71:0a:d5:3b:2b:f6:1d:
         ab:8f:8f:71:24:6e:11:a7:58:47:62:9b:85:c5:90:6b:1b:c6:
         cd:76:85:9e:ae:b6:c3:11:33:c6:13:6d:4c:41:ac:45:ab:84:
         ba:be:89:05:c6:82:2c:7a:f0:b6:8f:d4:74:26:95:ec:8d:0f:
         e1:43:80:95:88:24:ea:a2
-----BEGIN CERTIFICATE-----
MIIEIDCCAgigAwIBAgICEBYwDQYJKoZIhvcNAQEEBQAwZjFDMEEGA1UECgw6RCZP
IFRydXN0d29ydGggQ2VydGlmaWNhdGVzIC0gIlRydXN0IFVzIEZvciBZb3VyIFNl
Y3VyaXR5IjEfMB0GA1UEAwwWQ0EgZm9yIHRscy1vLW1hdGljLmNvbTAeFw05MjAx
MDEwMTI4MjhaFw0zNTA0MDEwMTAxMDFaMEoxKDAmBgNVBAoMH01ENSB3YXMgZ29v
ZCBlbm91Z2ggaW4gdGhlIDkwJ3MxHjAcBgNVBAMMFXRlc3Q5LnRscy1vLW1hdGlj
LmNvbTBcMA0GCSqGSIb3DQEBAQUAA0sAMEgCQQCxY61y/or6A5cU0/zacEa4Oaax
FX5NO0qBIIlrLLBHt3ZalFM2hmtH4IweeVGObr3YI7KpSGCdfFaKXsLUCwzfAgMB
AAGjgbswgbgwCQYDVR0TBAIwADATBgNVHSUEDDAKBggrBgEFBQcDATA6BglghkgB
hvhCAQ0ELRYrVExTLU8tTWF0aWMgTm8gVmFsaWRhdGlvbiBDZXJ0aWZpY2F0ZSDw
n5KwIDAdBgNVHQ4EFgQUPxZbDb09SDhMwGZW/ltjF+C6znQwHwYDVR0jBBgwFoAU
BNaiGgDaXheIzzHGyqGj0/efeyowGgYDVR0RBBMwEYIPdGxzLW8tbWF0aWMuY29t
MA0GCSqGSIb3DQEBBAUAA4ICAQC1vB6w/HuMTTQitzMqsKQS9oFi1Vd6qDyeF6ni
qyMbkvReG7Y9aZ+tU6GK3jUMizouatEy3QKlEu4aXjgugMFvipq2/YuwSiNOYxpJ
XHWx3wcUPe+pb7oRr4DICytiQ/yo8RFS9KJFBCzqW2/AbQ5LJc/oCK0zFABWbQbk
KvYmu8tmw+hFvFxPZxwaRYUwHf2TgB82Hvawv4Qjjax5dxsGabnmvkdSmE4RmbHU
wQy6nec0ILMnlOcfNoVoXP7wf2WuWuPpfupRmGbs+YNFOaWRjh5DcVy47RZEcC2a
6+E0E9Y+s75I+11kH/weu53UyJVG1/T4Y3mloEHYzuF7eRJFko9yhnUhFAOJyXaT
aJQ1mVSD5L+V9gJPygRzrUpbJGrqXV60wZ8CjacfCEMEH/kHTHJ31yqQ8qydxG+j
MYk0VYBZakkMc7SYqyP8YJw3VkomPY9JfzVl80lJ3IctDHOeo3G0gMF2r+99ORbE
NO+xSDW4Ehaf84jgqyTir3K1upYO2LkRi7jUJ1ZDCBTDoJGGl8ykgZXBXXZTAJEl
GKJRT/KkkozhFHapcPQBxBXipatY94gG/K239NqPPHEK1Tsr9h2rj49xJG4Rp1hH
YpuFxZBrG8bNdoWerrbDETPGE21MQaxFq4S6vokFxoIsevC2j9R0JpXsjQ/hQ4CV
iCTqog==
-----END CERTIFICATE-----
