Certificate:
    Data:
        Version: 3 (0x2)
        Serial Number: 8192 (0x2000)
    Signature Algorithm: sha1WithRSAEncryption
        Issuer: O=The very trustworthy CA and used car sales inc, CN=not-your-friend.co.uk
        Validity
            Not Before: Mar  1 19:41:41 2015 GMT
            Not After : Feb 26 19:41:41 2025 GMT
        Subject: O=We don't trust anyone, CN=test7.tls-o-matic.com
        Subject Public Key Info:
            Public Key Algorithm: rsaEncryption
                Public-Key: (2048 bit)
                Modulus:
                    00:cf:ce:b8:71:6a:05:5e:ad:82:78:f6:f4:69:da:
                    79:d5:3f:17:77:75:ca:4b:71:ac:7f:d9:2c:6b:43:
                    c9:63:f3:2c:d9:df:8a:b9:df:ba:0e:7f:14:e3:81:
                    e4:fd:e7:4d:1d:e5:40:23:c9:6d:db:d2:de:f7:cf:
                    e1:d4:09:e6:d2:01:a6:c1:58:2b:73:c0:91:97:45:
                    0a:f4:dc:d2:c6:40:19:9a:36:f6:2f:03:8b:8d:05:
                    d0:a9:0f:b6:57:10:e3:77:52:32:e3:b5:b6:e0:7e:
                    5f:63:7e:5f:ed:d5:7c:4c:f1:f2:1a:bb:35:8c:fd:
                    47:1d:5a:e7:b7:a6:79:23:2a:77:b9:10:26:25:2b:
                    f8:39:bb:35:d6:c7:df:a0:12:69:1f:19:96:72:df:
                    d1:cc:76:c2:08:d7:df:f1:83:6a:d1:1a:87:96:9b:
                    90:76:68:50:3e:c5:7f:db:c5:71:e3:9b:d3:55:82:
                    32:ef:83:b8:ad:40:7f:39:f6:e3:31:59:48:d9:05:
                    01:ae:a1:bb:57:f0:e9:cd:02:8c:e6:8e:73:3f:08:
                    34:ab:79:a1:2c:6c:c5:60:6a:5a:e2:87:a7:41:21:
                    56:f9:fd:f8:6e:24:14:42:aa:f2:7c:cd:40:7f:07:
                    90:43:ff:b7:ac:79:65:7c:8d:fb:52:4b:7d:65:89:
                    3e:cd
                Exponent: 65537 (0x10001)
        X509v3 extensions:
            X509v3 Basic Constraints: 
                CA:FALSE
            X509v3 Extended Key Usage: 
                TLS Web Server Authentication
            Netscape Comment: 
                TLS-O-Matic Evil No Validation Certificate 👿  
            X509v3 Subject Key Identifier: 
                17:F1:75:C2:73:A5:5B:9C:EC:0D:54:83:FD:CF:C1:20:62:C8:60:9F
            X509v3 Authority Key Identifier: 
                keyid:EF:A5:5D:C5:91:B8:E3:3C:FC:32:ED:8F:EC:1C:88:4A:E6:02:65:6D

    Signature Algorithm: sha1WithRSAEncryption
         66:b8:54:4e:76:51:4f:cf:f4:a7:53:c2:0a:01:2f:60:04:bc:
         0d:e6:32:04:0a:16:f4:ef:c7:d0:a6:29:2f:63:b9:a8:df:de:
         1b:45:4c:70:9e:a1:8b:54:6d:77:8d:62:b6:46:b5:75:da:11:
         30:4c:95:66:9b:8c:85:2c:26:de:7d:3a:16:34:28:a1:7c:79:
         9c:cc:45:86:bc:41:87:16:42:90:8f:bb:1b:e0:aa:de:c4:7d:
         59:9c:23:4f:b2:0f:77:5e:02:90:13:88:ba:c8:93:71:a8:51:
         da:16:b7:24:73:9a:33:35:73:db:4e:92:4b:a7:18:bd:db:b1:
         89:8c:96:e9:8e:d6:19:86:9f:7f:0e:44:8f:63:fb:32:ff:1e:
         38:42:4e:3b:55:2d:a0:0e:97:ba:b1:a0:bc:8d:04:ba:51:7a:
         38:dd:78:45:23:62:35:c0:c2:c3:5e:e5:1f:7b:58:fe:18:d7:
         fd:30:6b:42:37:66:1c:c4:77:ab:b9:85:7f:10:19:ce:df:5a:
         76:00:85:e7:a6:95:ad:47:f1:64:29:b6:93:ce:fe:08:cc:c1:
         d9:9c:98:e9:30:9d:04:9c:6d:c2:a9:a4:e4:04:51:f8:c4:7d:
         0f:0c:bc:83:72:50:33:97:00:58:84:5d:e8:ee:c7:e8:3f:a1:
         a6:d6:cd:19:6b:37:d7:6e:c3:08:0f:90:78:a6:ce:2e:0b:54:
         d0:68:1c:df:7e:02:08:97:17:cf:d6:36:a2:ff:b0:b8:30:95:
         47:79:1b:67:c9:5d:68:8f:b0:00:6a:db:6a:2e:7a:e5:24:bc:
         0a:47:35:16:cf:24:73:06:cd:a1:86:78:c5:13:40:a2:8d:48:
         42:90:ce:06:8a:6c:17:1f:00:8a:fd:39:a2:ae:d1:d6:31:e6:
         db:f0:ef:00:43:d9:82:3d:14:26:c9:72:8d:d6:b7:04:d6:be:
         ab:c8:c6:91:00:c0:97:f1:5e:4f:5c:50:60:d5:37:82:07:d3:
         0d:35:a7:bc:e7:59:87:76:74:eb:b2:e9:d2:2c:11:ec:ec:c6:
         67:20:60:cd:34:25:ab:77:7f:52:6f:17:70:dc:4c:8a:86:55:
         a0:43:03:d6:f1:1f:7b:93:48:0c:b9:f4:c7:1f:5b:8e:0e:61:
         50:5a:40:bb:45:88:90:54:a3:6e:f8:87:7c:7b:d7:4a:ec:ac:
         bb:30:36:ee:09:f7:cf:28:45:5b:e1:87:15:a9:f1:ca:12:70:
         7e:25:8d:3a:9f:68:ca:b0:8b:76:5f:92:72:dd:fa:af:84:79:
         69:94:bd:50:9b:67:f2:ce:a9:16:67:0b:3e:ae:15:ad:3a:77:
         18:f2:09:34:49:b9:4b:68
-----BEGIN CERTIFICATE-----
MIIEuzCCAqOgAwIBAgICIAAwDQYJKoZIhvcNAQEFBQAwWTE3MDUGA1UECgwuVGhl
IHZlcnkgdHJ1c3R3b3J0aHkgQ0EgYW5kIHVzZWQgY2FyIHNhbGVzIGluYzEeMBwG
A1UEAwwVbm90LXlvdXItZnJpZW5kLmNvLnVrMB4XDTE1MDMwMTE5NDE0MVoXDTI1
MDIyNjE5NDE0MVowQDEeMBwGA1UECgwVV2UgZG9uJ3QgdHJ1c3QgYW55b25lMR4w
HAYDVQQDDBV0ZXN0Ny50bHMtby1tYXRpYy5jb20wggEiMA0GCSqGSIb3DQEBAQUA
A4IBDwAwggEKAoIBAQDPzrhxagVerYJ49vRp2nnVPxd3dcpLcax/2SxrQ8lj8yzZ
34q537oOfxTjgeT9500d5UAjyW3b0t73z+HUCebSAabBWCtzwJGXRQr03NLGQBma
NvYvA4uNBdCpD7ZXEON3UjLjtbbgfl9jfl/t1XxM8fIauzWM/UcdWue3pnkjKne5
ECYlK/g5uzXWx9+gEmkfGZZy39HMdsII19/xg2rRGoeWm5B2aFA+xX/bxXHjm9NV
gjLvg7itQH859uMxWUjZBQGuobtX8OnNAozmjnM/CDSreaEsbMVgalrih6dBIVb5
/fhuJBRCqvJ8zUB/B5BD/7eseWV8jftSS31liT7NAgMBAAGjgaUwgaIwCQYDVR0T
BAIwADATBgNVHSUEDDAKBggrBgEFBQcDATBABglghkgBhvhCAQ0EMxYxVExTLU8t
TWF0aWMgRXZpbCBObyBWYWxpZGF0aW9uIENlcnRpZmljYXRlIPCfkb8gIDAdBgNV
HQ4EFgQUF/F1wnOlW5zsDVSD/c/BIGLIYJ8wHwYDVR0jBBgwFoAU76VdxZG44zz8
Mu2P7ByISuYCZW0wDQYJKoZIhvcNAQEFBQADggIBAGa4VE52UU/P9KdTwgoBL2AE
vA3mMgQKFvTvx9CmKS9juajf3htFTHCeoYtUbXeNYrZGtXXaETBMlWabjIUsJt59
OhY0KKF8eZzMRYa8QYcWQpCPuxvgqt7EfVmcI0+yD3deApATiLrIk3GoUdoWtyRz
mjM1c9tOkkunGL3bsYmMlumO1hmGn38ORI9j+zL/HjhCTjtVLaAOl7qxoLyNBLpR
ejjdeEUjYjXAwsNe5R97WP4Y1/0wa0I3ZhzEd6u5hX8QGc7fWnYAheemla1H8WQp
tpPO/gjMwdmcmOkwnQScbcKppOQEUfjEfQ8MvINyUDOXAFiEXejux+g/oabWzRlr
N9duwwgPkHimzi4LVNBoHN9+AgiXF8/WNqL/sLgwlUd5G2fJXWiPsABq22oueuUk
vApHNRbPJHMGzaGGeMUTQKKNSEKQzgaKbBcfAIr9OaKu0dYx5tvw7wBD2YI9FCbJ
co3WtwTWvqvIxpEAwJfxXk9cUGDVN4IH0w01p7znWYd2dOuy6dIsEezsxmcgYM00
Jat3f1JvF3DcTIqGVaBDA9bxH3uTSAy59McfW44OYVBaQLtFiJBUo274h3x710rs
rLswNu4J988oRVvhhxWp8coScH4ljTqfaMqwi3ZfknLd+q+EeWmUvVCbZ/LOqRZn
Cz6uFa06dxjyCTRJuUto
-----END CERTIFICATE-----
