Certificate:
    Data:
        Version: 3 (0x2)
        Serial Number: 4110 (0x100e)
    Signature Algorithm: sha256WithRSAEncryption
        Issuer: O=D&O TLS-O-MATIC CERTIFICATE AUTHORITY AB, CN=tls-o-matic.com
        Validity
            Not Before: Feb 15 09:33:33 2015 GMT
            Not After : Feb 15 09:33:33 2016 GMT
        Subject: O=Johansson TLS hardcore testing AB, CN=*.tls-o-matic.com
        Subject Public Key Info:
            Public Key Algorithm: rsaEncryption
                Public-Key: (2048 bit)
                Modulus:
                    00:d1:1a:4c:cb:4c:a6:2e:dc:1d:71:1c:5c:3a:6a:
                    62:ed:a8:ac:79:64:89:22:7f:a6:b5:39:e2:4c:d5:
                    c8:94:4c:46:ea:c0:71:56:7f:f0:cc:01:c6:7e:17:
                    ea:3a:ac:9e:70:2b:93:cc:4d:5b:27:98:c5:a1:28:
                    5f:ab:eb:65:30:50:db:32:38:32:c3:ec:66:d4:8c:
                    49:5e:b7:f9:60:f4:de:22:a5:b4:71:82:83:5f:57:
                    b6:f5:b6:45:d8:59:b1:b9:4f:88:97:06:e3:c9:ef:
                    56:0b:2f:f8:c8:6f:7c:d8:30:d8:2b:b4:92:8a:22:
                    da:25:41:89:64:a7:6f:e2:71:f3:5b:c0:2a:35:2d:
                    2e:4a:e0:a6:cd:49:7d:54:68:c5:e3:f9:78:4d:c3:
                    e8:d5:ce:fb:60:b6:b1:10:c0:fc:83:15:ea:e9:18:
                    9e:e7:22:f8:92:3d:f0:47:25:83:10:82:bc:88:9a:
                    8c:5f:ee:ec:f0:8e:5b:20:93:8e:98:4b:4a:7a:4e:
                    50:67:a7:c1:c0:70:c0:60:5d:b4:03:c0:98:a6:b5:
                    bf:13:49:79:fc:43:39:a9:4d:7f:da:51:fe:03:cd:
                    11:40:8a:2a:4c:58:23:35:57:c9:65:de:1f:8c:a1:
                    eb:f0:91:c2:49:d9:88:bd:61:bd:5f:b2:91:cc:38:
                    fc:fb
                Exponent: 65537 (0x10001)
        X509v3 extensions:
            X509v3 Basic Constraints: 
                CA:FALSE
            X509v3 Extended Key Usage: 
                TLS Web Server Authentication
            Netscape Comment: 
                TLS-O-Matic No Validation Certificate 💰 
            X509v3 Subject Key Identifier: 
                B7:DF:A8:31:06:8A:08:08:F7:F7:AE:9A:E0:DC:3C:E6:1A:F5:53:9A
            X509v3 Authority Key Identifier: 
                keyid:1D:6D:58:5B:49:3A:CC:00:2B:22:20:40:42:56:DD:C7:EB:B2:73:45

            X509v3 Subject Alternative Name: 
                DNS:*.test.tls-o-matic.com
    Signature Algorithm: sha256WithRSAEncryption
         a2:66:c7:f9:fd:3d:ba:09:7a:d0:44:73:5e:14:e0:95:f9:14:
         67:5b:36:2f:2e:68:b9:0d:45:40:f1:06:f0:0c:c6:32:cd:7c:
         00:c6:be:4e:17:3d:dc:a7:00:c3:2e:ba:5d:1c:e5:f5:59:e6:
         ea:8e:41:64:a4:06:6d:70:08:42:cf:aa:25:10:0f:a9:e2:b7:
         e7:b2:2d:55:0e:e5:d3:fa:ae:96:a0:ba:19:43:73:9c:bc:aa:
         e8:49:dd:38:0f:4a:43:7d:50:b7:ed:68:d4:cb:b3:e5:3e:b6:
         19:fc:4c:5a:f0:5d:96:12:16:d5:33:11:7b:1a:2b:cb:5d:4e:
         70:a5:2f:4a:25:20:e8:c4:a5:ac:4a:27:25:cc:af:f7:3e:46:
         e9:9c:82:24:f3:39:5f:12:e7:80:e6:04:23:02:8c:51:2c:c6:
         68:3f:ad:17:41:b1:47:a7:f7:f8:39:79:da:24:b5:2d:df:2a:
         0f:56:7d:6b:8e:02:66:47:3d:2a:8d:14:5c:94:bc:9f:1c:48:
         6b:e3:2c:a3:06:ef:b6:2a:71:94:d4:f2:80:42:25:6f:f2:2e:
         e3:1f:1e:2c:22:99:ac:6f:ae:c7:5a:53:42:d1:ca:d5:5f:f7:
         76:91:94:68:86:8e:e0:ea:7e:d6:0b:e0:98:b7:12:24:d2:d1:
         72:b1:e8:1f
-----BEGIN CERTIFICATE-----
MIID1DCCArygAwIBAgICEA4wDQYJKoZIhvcNAQELBQAwTTExMC8GA1UEChQoRCZP
IFRMUy1PLU1BVElDIENFUlRJRklDQVRFIEFVVEhPUklUWSBBQjEYMBYGA1UEAxMP
dGxzLW8tbWF0aWMuY29tMB4XDTE1MDIxNTA5MzMzM1oXDTE2MDIxNTA5MzMzM1ow
SDEqMCgGA1UECgwhSm9oYW5zc29uIFRMUyBoYXJkY29yZSB0ZXN0aW5nIEFCMRow
GAYDVQQDDBEqLnRscy1vLW1hdGljLmNvbTCCASIwDQYJKoZIhvcNAQEBBQADggEP
ADCCAQoCggEBANEaTMtMpi7cHXEcXDpqYu2orHlkiSJ/prU54kzVyJRMRurAcVZ/
8MwBxn4X6jqsnnArk8xNWyeYxaEoX6vrZTBQ2zI4MsPsZtSMSV63+WD03iKltHGC
g19XtvW2RdhZsblPiJcG48nvVgsv+MhvfNgw2Cu0kooi2iVBiWSnb+Jx81vAKjUt
Lkrgps1JfVRoxeP5eE3D6NXO+2C2sRDA/IMV6ukYnuci+JI98EclgxCCvIiajF/u
7PCOWyCTjphLSnpOUGenwcBwwGBdtAPAmKa1vxNJefxDOalNf9pR/gPNEUCKKkxY
IzVXyWXeH4yh6/CRwknZiL1hvV+ykcw4/PsCAwEAAaOBwjCBvzAJBgNVHRMEAjAA
MBMGA1UdJQQMMAoGCCsGAQUFBwMBMDoGCWCGSAGG+EIBDQQtFitUTFMtTy1NYXRp
YyBObyBWYWxpZGF0aW9uIENlcnRpZmljYXRlIPCfkrAgMB0GA1UdDgQWBBS336gx
BooICPf3rprg3DzmGvVTmjAfBgNVHSMEGDAWgBQdbVhbSTrMACsiIEBCVt3H67Jz
RTAhBgNVHREEGjAYghYqLnRlc3QudGxzLW8tbWF0aWMuY29tMA0GCSqGSIb3DQEB
CwUAA4IBAQCiZsf5/T26CXrQRHNeFOCV+RRnWzYvLmi5DUVA8QbwDMYyzXwAxr5O
Fz3cpwDDLrpdHOX1WebqjkFkpAZtcAhCz6olEA+p4rfnsi1VDuXT+q6WoLoZQ3Oc
vKroSd04D0pDfVC37WjUy7PlPrYZ/Exa8F2WEhbVMxF7GivLXU5wpS9KJSDoxKWs
SiclzK/3PkbpnIIk8zlfEueA5gQjAoxRLMZoP60XQbFHp/f4OXnaJLUt3yoPVn1r
jgJmRz0qjRRclLyfHEhr4yyjBu+2KnGU1PKAQiVv8i7jHx4sIpmsb67HWlNC0crV
X/d2kZRoho7g6n7WC+CYtxIk0tFysegf
-----END CERTIFICATE-----
