Certificate:
    Data:
        Version: 3 (0x2)
        Serial Number: 4131 (0x1023)
    Signature Algorithm: sha256WithRSAEncryption
        Issuer: O=TLS-O-Matic Intermediate CA 1, CN=TLS-o-matic-intermediate-1
        Validity
            Not Before: Feb 21 14:10:46 2015 GMT
            Not After : Feb 21 14:10:46 2016 GMT
        Subject: O=Funny Frog API services for hot dog distribution and car wash, CN=test15a.tls-o-matic.com
        Subject Public Key Info:
            Public Key Algorithm: rsaEncryption
                Public-Key: (2048 bit)
                Modulus:
                    00:d4:7d:58:7b:43:38:a8:56:35:0b:c7:f4:9f:65:
                    65:b8:b9:6e:a5:06:7f:a0:53:86:b2:86:52:54:22:
                    bd:51:49:91:08:a5:77:ba:c3:a4:27:f2:72:68:89:
                    4c:bb:3d:0e:22:f3:e0:f3:a2:ed:31:88:a7:ca:cd:
                    c2:e5:b2:a6:a3:9c:be:76:51:d5:f2:53:90:46:e7:
                    a6:16:d8:41:cc:b0:79:da:51:24:4c:19:6d:12:cf:
                    a8:99:fe:49:b9:ee:b8:ae:a4:f5:e7:a8:1f:b8:4c:
                    24:a9:41:61:7e:60:cb:05:81:fd:02:63:52:2b:1e:
                    80:df:77:20:26:e9:3e:c6:15:9b:b5:db:20:b6:8e:
                    39:ca:17:ca:c1:b3:87:f0:82:be:fd:b8:6a:3a:ca:
                    85:1c:9a:78:6b:41:08:78:1a:cc:d9:74:02:51:43:
                    5c:72:36:d3:70:4d:72:84:10:82:2d:f9:7d:4e:58:
                    ca:82:08:7a:77:80:d4:11:33:31:58:14:67:58:2b:
                    da:77:01:34:83:56:6f:9b:3e:1a:02:09:ab:3f:d2:
                    64:7a:28:20:9b:95:29:3c:20:88:30:1a:08:17:79:
                    a9:8e:f7:27:07:80:8a:d3:9c:09:ff:56:da:34:fb:
                    37:48:a4:5b:81:e1:38:86:7e:39:95:52:99:24:10:
                    a0:a9
                Exponent: 65537 (0x10001)
        X509v3 extensions:
            X509v3 Basic Constraints: 
                CA:FALSE
            X509v3 Extended Key Usage: 
                TLS Web Server Authentication
            Netscape Comment: 
                TLS-O-Matic No Validation Certificate 💰 
            X509v3 Subject Key Identifier: 
                FE:D4:B5:95:B4:13:3D:6C:08:D1:73:DB:2F:A7:9A:9C:20:4A:D0:30
            X509v3 Authority Key Identifier: 
                keyid:3C:8D:0C:2C:72:26:28:A0:65:30:77:82:9E:A9:A3:A7:E9:24:F2:B5

            X509v3 Subject Alternative Name: 
                email:info@tls-o-matic.com
    Signature Algorithm: sha256WithRSAEncryption
         44:c9:2c:b9:87:8d:85:88:49:92:90:7c:aa:e8:45:49:62:7b:
         81:9b:21:eb:ba:72:d5:79:5e:01:90:2a:f9:b5:3b:38:85:44:
         e9:a4:50:32:77:3b:bb:b1:c8:53:2b:7f:93:f6:b2:90:77:92:
         a4:f1:f8:68:af:cd:3a:70:f3:44:45:f8:e1:ac:91:ce:f4:6d:
         a6:06:eb:d8:75:d3:de:5b:22:a4:f6:83:12:18:4c:8d:58:5a:
         42:03:ce:7c:84:39:d5:ff:02:fc:34:e6:77:88:1a:7f:ed:8e:
         2a:0b:ef:28:6d:d3:54:7d:cb:e1:36:9d:1a:12:fc:b9:db:a8:
         86:40:42:4b:ed:d2:3e:17:04:2e:ba:c8:26:40:52:03:95:30:
         82:24:25:07:8e:2b:6d:c5:0b:f8:c3:db:67:60:9c:46:cc:0e:
         6a:22:07:9a:ca:6f:0b:98:25:2b:35:a6:fb:2c:59:bd:db:ee:
         57:69:06:ce:e9:c2:fa:36:e8:bf:8d:0a:c3:d7:08:57:0c:21:
         51:f3:52:a6:49:02:7a:5a:07:f4:f6:01:09:b9:f3:da:46:6c:
         70:4c:94:29:bd:df:85:76:8b:4e:b9:86:6d:af:4c:cf:da:05:
         4f:6d:01:32:3d:ee:fb:71:b1:47:4f:22:41:fa:d3:95:14:1a:
         90:93:3e:b7
-----BEGIN CERTIFICATE-----
MIID9DCCAtygAwIBAgICECMwDQYJKoZIhvcNAQELBQAwTTEmMCQGA1UECgwdVExT
LU8tTWF0aWMgSW50ZXJtZWRpYXRlIENBIDExIzAhBgNVBAMMGlRMUy1vLW1hdGlj
LWludGVybWVkaWF0ZS0xMB4XDTE1MDIyMTE0MTA0NloXDTE2MDIyMTE0MTA0Nlow
ajFGMEQGA1UECgw9RnVubnkgRnJvZyBBUEkgc2VydmljZXMgZm9yIGhvdCBkb2cg
ZGlzdHJpYnV0aW9uIGFuZCBjYXIgd2FzaDEgMB4GA1UEAwwXdGVzdDE1YS50bHMt
by1tYXRpYy5jb20wggEiMA0GCSqGSIb3DQEBAQUAA4IBDwAwggEKAoIBAQDUfVh7
QzioVjULx/SfZWW4uW6lBn+gU4ayhlJUIr1RSZEIpXe6w6Qn8nJoiUy7PQ4i8+Dz
ou0xiKfKzcLlsqajnL52UdXyU5BG56YW2EHMsHnaUSRMGW0Sz6iZ/km57riupPXn
qB+4TCSpQWF+YMsFgf0CY1IrHoDfdyAm6T7GFZu12yC2jjnKF8rBs4fwgr79uGo6
yoUcmnhrQQh4GszZdAJRQ1xyNtNwTXKEEIIt+X1OWMqCCHp3gNQRMzFYFGdYK9p3
ATSDVm+bPhoCCas/0mR6KCCblSk8IIgwGggXeamO9ycHgIrTnAn/Vto0+zdIpFuB
4TiGfjmVUpkkEKCpAgMBAAGjgcAwgb0wCQYDVR0TBAIwADATBgNVHSUEDDAKBggr
BgEFBQcDATA6BglghkgBhvhCAQ0ELRYrVExTLU8tTWF0aWMgTm8gVmFsaWRhdGlv
biBDZXJ0aWZpY2F0ZSDwn5KwIDAdBgNVHQ4EFgQU/tS1lbQTPWwI0XPbL6eanCBK
0DAwHwYDVR0jBBgwFoAUPI0MLHImKKBlMHeCnqmjp+kk8rUwHwYDVR0RBBgwFoEU
aW5mb0B0bHMtby1tYXRpYy5jb20wDQYJKoZIhvcNAQELBQADggEBAETJLLmHjYWI
SZKQfKroRUlie4GbIeu6ctV5XgGQKvm1OziFROmkUDJ3O7uxyFMrf5P2spB3kqTx
+GivzTpw80RF+OGskc70baYG69h1095bIqT2gxIYTI1YWkIDznyEOdX/Avw05neI
Gn/tjioL7yht01R9y+E2nRoS/LnbqIZAQkvt0j4XBC66yCZAUgOVMIIkJQeOK23F
C/jD22dgnEbMDmoiB5rKbwuYJSs1pvssWb3b7ldpBs7pwvo26L+NCsPXCFcMIVHz
UqZJAnpaB/T2AQm589pGbHBMlCm934V2i065hm2vTM/aBU9tATI97vtxsUdPIkH6
05UUGpCTPrc=
-----END CERTIFICATE-----
