Certificate:
    Data:
        Version: 3 (0x2)
        Serial Number: 4138 (0x102a)
    Signature Algorithm: sha256WithRSAEncryption
        Issuer: O=D&O TLS-O-MATIC CERTIFICATE AUTHORITY AB, CN=tls-o-matic.com
        Validity
            Not Before: Feb 21 16:22:26 2015 GMT
            Not After : Feb 21 16:22:26 2016 GMT
        Subject: O=Can't Make Up My Mind Inc, CN=*.tls-o-matic.com
        Subject Public Key Info:
            Public Key Algorithm: rsaEncryption
                Public-Key: (2048 bit)
                Modulus:
                    00:c5:22:1f:12:a1:2a:8d:9a:70:1f:6f:b7:b4:33:
                    fe:2c:7f:51:ad:c0:00:37:93:92:4b:7e:4f:6c:4b:
                    38:eb:3b:ce:39:3b:09:63:bc:86:f0:11:a5:c1:df:
                    b0:03:99:0e:70:2d:23:1a:6d:59:00:6a:ee:70:87:
                    e6:ca:a5:07:31:f3:66:0e:0e:e1:9b:51:96:6f:90:
                    0f:75:59:63:c1:7b:37:a3:19:3e:47:91:c7:04:49:
                    e2:2f:ad:03:9c:10:e6:e2:6c:d0:57:db:0c:cb:ad:
                    70:e4:78:64:e9:53:34:95:d2:9e:5a:49:83:92:16:
                    63:0c:9b:ce:83:b5:df:ae:dd:79:f8:30:7b:b9:b2:
                    a9:d1:32:b7:82:4b:c7:0e:5b:d8:81:56:05:be:e8:
                    5b:c6:8b:f7:98:84:ca:0e:58:b9:36:8f:56:24:87:
                    b5:95:35:a0:46:d7:f0:50:cf:51:09:9e:77:aa:9d:
                    b8:fc:4e:c3:96:ed:c3:35:79:cf:8d:50:c9:aa:0f:
                    e4:f1:68:57:ea:0e:ff:9d:c2:7b:1c:8d:eb:07:74:
                    33:17:ba:f2:86:b7:13:5f:74:b1:29:20:2a:7a:5b:
                    6c:5e:af:99:e2:12:4a:8a:01:ae:02:a1:40:ec:39:
                    ab:5a:43:27:91:46:51:07:0d:ee:6e:96:93:21:d4:
                    f7:bf
                Exponent: 65537 (0x10001)
        X509v3 extensions:
            X509v3 Basic Constraints: 
                CA:FALSE
            X509v3 Extended Key Usage: 
                TLS Web Server Authentication
            Netscape Comment: 
                TLS-O-Matic No Validation Certificate 💰 
            X509v3 Subject Key Identifier: 
                24:DD:1D:94:D8:F1:62:A4:8A:3D:13:77:42:D2:00:B5:6A:0D:24:83
            X509v3 Authority Key Identifier: 
                keyid:1D:6D:58:5B:49:3A:CC:00:2B:22:20:40:42:56:DD:C7:EB:B2:73:45

            X509v3 Subject Alternative Name: 
                DNS:*.test.tls-o-matic.com, DNS:*.tls-o-matic.com, DNS:*.beta.tls-o-matic.com
    Signature Algorithm: sha256WithRSAEncryption
         12:80:c3:73:53:9c:56:b0:30:5a:7f:30:f2:cb:3a:d0:a1:46:
         59:b7:b0:8c:65:db:d3:06:ad:b7:bf:c0:1f:71:80:7a:8a:aa:
         6f:b2:00:6e:d6:38:81:d2:38:6f:ea:95:f1:f3:c1:44:49:70:
         5a:7c:58:ce:d8:36:22:c8:83:9d:ce:8e:83:13:4a:2d:d0:33:
         b7:1d:fc:98:bb:f9:f6:e1:54:80:01:cf:9d:69:22:b6:50:b4:
         ff:82:a4:42:64:cd:a6:a9:2b:b1:c3:eb:46:16:3b:e7:7b:8a:
         ca:55:9b:6c:ad:99:62:7b:9b:54:a5:f9:7f:2c:89:aa:2f:5b:
         dc:05:fa:6f:38:e3:9e:b8:b6:9e:3b:1a:29:cc:b1:24:ee:2c:
         4f:b1:35:9d:8b:03:0e:e4:3a:23:d5:e5:5f:b8:4a:62:05:15:
         c0:34:06:4c:02:f7:37:ba:04:0f:e8:8a:a5:9a:74:cf:ad:bb:
         0b:d7:61:96:1e:15:5b:9c:0f:8b:a5:9a:26:0f:08:57:5c:55:
         53:b5:1c:e9:04:bc:fc:a5:57:3b:f6:5d:23:5e:58:dd:79:7f:
         8a:04:a5:88:fd:4a:a6:cf:ec:d1:f7:97:cb:a2:7a:85:04:b3:
         25:81:bf:b3:46:72:fb:a0:d1:cb:e9:2d:23:39:25:fc:37:27:
         9e:f8:65:1f
-----BEGIN CERTIFICATE-----
MIID9zCCAt+gAwIBAgICECowDQYJKoZIhvcNAQELBQAwTTExMC8GA1UEChQoRCZP
IFRMUy1PLU1BVElDIENFUlRJRklDQVRFIEFVVEhPUklUWSBBQjEYMBYGA1UEAxMP
dGxzLW8tbWF0aWMuY29tMB4XDTE1MDIyMTE2MjIyNloXDTE2MDIyMTE2MjIyNlow
QDEiMCAGA1UECgwZQ2FuJ3QgTWFrZSBVcCBNeSBNaW5kIEluYzEaMBgGA1UEAwwR
Ki50bHMtby1tYXRpYy5jb20wggEiMA0GCSqGSIb3DQEBAQUAA4IBDwAwggEKAoIB
AQDFIh8SoSqNmnAfb7e0M/4sf1GtwAA3k5JLfk9sSzjrO845OwljvIbwEaXB37AD
mQ5wLSMabVkAau5wh+bKpQcx82YODuGbUZZvkA91WWPBezejGT5HkccESeIvrQOc
EObibNBX2wzLrXDkeGTpUzSV0p5aSYOSFmMMm86Dtd+u3Xn4MHu5sqnRMreCS8cO
W9iBVgW+6FvGi/eYhMoOWLk2j1Ykh7WVNaBG1/BQz1EJnneqnbj8TsOW7cM1ec+N
UMmqD+TxaFfqDv+dwnscjesHdDMXuvKGtxNfdLEpICp6W2xer5niEkqKAa4CoUDs
OataQyeRRlEHDe5ulpMh1Pe/AgMBAAGjge0wgeowCQYDVR0TBAIwADATBgNVHSUE
DDAKBggrBgEFBQcDATA6BglghkgBhvhCAQ0ELRYrVExTLU8tTWF0aWMgTm8gVmFs
aWRhdGlvbiBDZXJ0aWZpY2F0ZSDwn5KwIDAdBgNVHQ4EFgQUJN0dlNjxYqSKPRN3
QtIAtWoNJIMwHwYDVR0jBBgwFoAUHW1YW0k6zAArIiBAQlbdx+uyc0UwTAYDVR0R
BEUwQ4IWKi50ZXN0LnRscy1vLW1hdGljLmNvbYIRKi50bHMtby1tYXRpYy5jb22C
FiouYmV0YS50bHMtby1tYXRpYy5jb20wDQYJKoZIhvcNAQELBQADggEBABKAw3NT
nFawMFp/MPLLOtChRlm3sIxl29MGrbe/wB9xgHqKqm+yAG7WOIHSOG/qlfHzwURJ
cFp8WM7YNiLIg53OjoMTSi3QM7cd/Ji7+fbhVIABz51pIrZQtP+CpEJkzaapK7HD
60YWO+d7ispVm2ytmWJ7m1Sl+X8siaovW9wF+m844564tp47GinMsSTuLE+xNZ2L
Aw7kOiPV5V+4SmIFFcA0BkwC9ze6BA/oiqWadM+tuwvXYZYeFVucD4ulmiYPCFdc
VVO1HOkEvPylVzv2XSNeWN15f4oEpYj9SqbP7NH3l8uieoUEsyWBv7NGcvug0cvp
LSM5Jfw3J574ZR8=
-----END CERTIFICATE-----
