Certificate:
    Data:
        Version: 3 (0x2)
        Serial Number: 4107 (0x100b)
    Signature Algorithm: sha256WithRSAEncryption
        Issuer: O=D&O TLS-O-MATIC CERTIFICATE AUTHORITY AB, CN=tls-o-matic.com
        Validity
            Not Before: Feb 15 09:20:47 2015 GMT
            Not After : Feb 15 09:20:47 2016 GMT
        Subject: O=Andorra Magical Certificates , CN=test2.tls-o-matic.com
        Subject Public Key Info:
            Public Key Algorithm: rsaEncryption
                Public-Key: (2048 bit)
                Modulus:
                    00:ce:71:1b:c1:2c:74:af:eb:1c:2e:2e:bf:48:47:
                    10:7c:c8:9d:cd:11:3f:55:7d:77:af:e1:44:c3:dc:
                    3c:84:c4:c9:7b:5c:bd:c2:7c:f7:9f:dc:e7:48:8a:
                    1b:1c:c4:43:04:41:8a:9c:85:fd:d9:74:5a:59:9e:
                    5e:43:73:1c:e4:47:6d:59:0c:58:f9:c1:14:e3:79:
                    43:06:01:6e:fd:c5:ac:d8:ae:cf:89:33:34:83:72:
                    40:38:a5:d5:68:cb:2a:08:2b:b8:90:75:fb:81:ac:
                    72:fb:a3:e1:a6:0c:3b:81:ad:31:29:d7:89:7c:18:
                    a9:04:0b:fb:54:10:55:56:e9:fa:ae:ae:01:a5:b4:
                    64:6f:5e:70:90:4f:c5:5e:8c:6a:8a:39:4f:cc:b1:
                    1e:84:9a:c3:cc:93:7e:0d:9f:2e:e1:c0:cb:c2:c9:
                    36:04:46:55:7c:f0:9c:df:85:fd:d7:ea:e6:7c:b9:
                    06:68:f8:26:1d:c7:21:30:23:00:83:af:ff:b5:9d:
                    e4:52:63:f8:1e:6f:c3:36:dc:df:6c:ef:17:32:95:
                    9a:da:4b:2b:e3:61:9a:2a:3a:3c:a8:f2:e9:90:9d:
                    a6:d9:77:9f:55:63:fd:8a:88:1e:58:1f:37:9d:08:
                    17:51:dd:d8:60:64:41:48:a2:63:0d:af:40:b4:11:
                    9c:9d
                Exponent: 65537 (0x10001)
        X509v3 extensions:
            X509v3 Basic Constraints: 
                CA:FALSE
            X509v3 Extended Key Usage: 
                TLS Web Server Authentication
            Netscape Comment: 
                TLS-O-Matic Beer Validation Certificate 💰 
            X509v3 Subject Key Identifier: 
                AC:21:92:4B:34:91:A2:B1:FD:B7:F8:7D:C9:7F:BE:E4:80:47:5B:5E
            X509v3 Authority Key Identifier: 
                keyid:1D:6D:58:5B:49:3A:CC:00:2B:22:20:40:42:56:DD:C7:EB:B2:73:45

    Signature Algorithm: sha256WithRSAEncryption
         55:1c:c5:9b:53:d0:d7:4a:e0:ca:47:d0:ce:06:f6:bb:8d:35:
         7a:b0:27:51:66:20:9f:5c:33:53:f1:60:09:98:6f:7b:6d:70:
         e5:d1:45:bd:8d:3a:0a:2f:b8:ac:f9:86:81:ef:3b:7c:7e:c2:
         87:20:ef:ee:41:86:d9:81:22:a9:57:92:a0:8c:81:6f:a6:62:
         f8:20:2e:68:c6:31:c8:25:b2:17:dc:27:35:99:38:e0:a0:cd:
         b3:f0:43:74:1b:ad:a3:84:75:2f:e8:be:2b:35:f6:20:59:25:
         58:1d:0a:00:19:ae:68:c6:45:65:43:1c:03:4a:79:cb:7b:61:
         50:29:68:52:4c:2f:a7:3d:2a:e5:fb:23:cb:48:87:1d:e5:e2:
         84:8d:90:95:51:6c:b4:6f:ea:09:50:07:80:e7:d0:44:db:83:
         da:cf:18:d6:fb:b3:c9:25:97:2c:99:7c:19:8a:d3:bb:e1:a3:
         c2:d8:64:5a:af:1a:67:b9:5b:66:46:43:80:7b:7e:6b:c2:e3:
         f8:5a:3c:8d:af:86:ee:f5:15:03:a6:0d:7f:69:e4:5c:9f:6f:
         c8:85:fa:7e:a1:7a:06:f7:74:1a:51:6e:98:29:b4:2f:5c:b1:
         68:5e:de:3b:89:6b:a1:68:0f:46:71:c4:51:43:32:ab:28:c9:
         d5:ec:96:ec
-----BEGIN CERTIFICATE-----
MIIDszCCApugAwIBAgICEAswDQYJKoZIhvcNAQELBQAwTTExMC8GA1UEChQoRCZP
IFRMUy1PLU1BVElDIENFUlRJRklDQVRFIEFVVEhPUklUWSBBQjEYMBYGA1UEAxMP
dGxzLW8tbWF0aWMuY29tMB4XDTE1MDIxNTA5MjA0N1oXDTE2MDIxNTA5MjA0N1ow
SDEmMCQGA1UECgwdQW5kb3JyYSBNYWdpY2FsIENlcnRpZmljYXRlcyAxHjAcBgNV
BAMMFXRlc3QyLnRscy1vLW1hdGljLmNvbTCCASIwDQYJKoZIhvcNAQEBBQADggEP
ADCCAQoCggEBAM5xG8EsdK/rHC4uv0hHEHzInc0RP1V9d6/hRMPcPITEyXtcvcJ8
95/c50iKGxzEQwRBipyF/dl0WlmeXkNzHORHbVkMWPnBFON5QwYBbv3FrNiuz4kz
NINyQDil1WjLKggruJB1+4Gscvuj4aYMO4GtMSnXiXwYqQQL+1QQVVbp+q6uAaW0
ZG9ecJBPxV6Maoo5T8yxHoSaw8yTfg2fLuHAy8LJNgRGVXzwnN+F/dfq5ny5Bmj4
Jh3HITAjAIOv/7Wd5FJj+B5vwzbc32zvFzKVmtpLK+Nhmio6PKjy6ZCdptl3n1Vj
/YqIHlgfN50IF1Hd2GBkQUiiYw2vQLQRnJ0CAwEAAaOBoTCBnjAJBgNVHRMEAjAA
MBMGA1UdJQQMMAoGCCsGAQUFBwMBMDwGCWCGSAGG+EIBDQQvFi1UTFMtTy1NYXRp
YyBCZWVyIFZhbGlkYXRpb24gQ2VydGlmaWNhdGUg8J+SsCAwHQYDVR0OBBYEFKwh
kks0kaKx/bf4fcl/vuSAR1teMB8GA1UdIwQYMBaAFB1tWFtJOswAKyIgQEJW3cfr
snNFMA0GCSqGSIb3DQEBCwUAA4IBAQBVHMWbU9DXSuDKR9DOBva7jTV6sCdRZiCf
XDNT8WAJmG97bXDl0UW9jToKL7is+YaB7zt8fsKHIO/uQYbZgSKpV5KgjIFvpmL4
IC5oxjHIJbIX3Cc1mTjgoM2z8EN0G62jhHUv6L4rNfYgWSVYHQoAGa5oxkVlQxwD
SnnLe2FQKWhSTC+nPSrl+yPLSIcd5eKEjZCVUWy0b+oJUAeA59BE24PazxjW+7PJ
JZcsmXwZitO74aPC2GRarxpnuVtmRkOAe35rwuP4WjyNr4bu9RUDpg1/aeRcn2/I
hfp+oXoG93QaUW6YKbQvXLFoXt47iWuhaA9GccRRQzKrKMnV7Jbs
-----END CERTIFICATE-----
