Certificate:
    Data:
        Version: 3 (0x2)
        Serial Number: 4117 (0x1015)
    Signature Algorithm: sha256WithRSAEncryption
        Issuer: O=D&O Trustworth Certificates - "Trust Us For Your Security", CN=CA for tls-o-matic.com
        Validity
            Not Before: Mar  1 19:42:07 2015 GMT
            Not After : Feb 29 19:42:07 2016 GMT
        Subject: O=We Challenge You, Inc, CN=test8.tls-o-matic.com
        Subject Public Key Info:
            Public Key Algorithm: rsaEncryption
                Public-Key: (2048 bit)
                Modulus:
                    00:c7:5b:3a:8b:e9:9b:c5:7b:72:f6:68:4a:d2:5c:
                    53:43:e6:fa:d0:8d:d4:4d:5e:c4:38:43:55:0d:8d:
                    49:8c:54:98:04:ab:66:04:ce:ce:01:71:18:ef:08:
                    ed:dc:cf:63:4a:18:13:83:85:82:fa:2b:c1:3d:71:
                    ab:ec:aa:58:69:20:e9:78:79:8c:5f:64:90:df:88:
                    47:fc:a9:0b:53:8b:9d:90:c3:37:64:1c:8c:dd:7e:
                    24:7a:af:6a:00:03:4b:01:a8:2d:e2:17:e7:71:75:
                    fc:60:b3:90:20:01:7c:75:50:09:9c:02:43:91:20:
                    8c:d8:37:00:06:a8:ad:9d:a0:4c:33:ff:6a:16:03:
                    33:d5:98:e6:d4:8c:8e:9b:02:e0:29:0e:d3:b8:e2:
                    90:33:81:12:22:4d:5a:ac:4f:bf:e5:49:a3:3f:29:
                    c4:64:db:b9:09:a8:bb:b5:2c:e9:c2:8a:28:21:ac:
                    ae:06:4a:84:62:a5:93:b9:48:45:3b:91:76:33:46:
                    22:50:0f:e4:e6:c3:0d:df:ba:6f:22:b6:da:d3:ba:
                    32:db:bd:1b:00:b1:0d:85:8d:71:34:ae:04:49:61:
                    11:fa:97:74:0f:0a:bf:c6:7a:eb:f7:0d:e7:eb:1d:
                    77:a4:ba:40:23:d2:af:07:72:19:1c:87:d3:10:fc:
                    c2:45
                Exponent: 65537 (0x10001)
        X509v3 extensions:
            X509v3 Basic Constraints: 
                CA:FALSE
            X509v3 Extended Key Usage: 
                TLS Web Server Authentication
            Netscape Comment: 
                TLS-O-Matic No Validation Certificate 💰 
            X509v3 Subject Key Identifier: 
                3D:1F:86:5A:DF:75:5D:31:30:13:24:F5:90:55:06:49:B2:F1:BF:B1
            X509v3 Authority Key Identifier: 
                keyid:04:D6:A2:1A:00:DA:5E:17:88:CF:31:C6:CA:A1:A3:D3:F7:9F:7B:2A

            X509v3 Subject Alternative Name: 
                DNS:tls-o-matic.com, DNS:test8.tls-o-matic.com, URI:sip:info@tls-o-matic.com
    Signature Algorithm: sha256WithRSAEncryption
         1b:1c:3b:dd:7f:bc:ba:c0:d3:a7:bc:29:98:5d:24:ad:cd:d2:
         fd:78:04:0c:0d:68:35:d9:4d:fd:7d:43:a3:a8:9b:d3:b1:f8:
         aa:23:0a:b1:ed:1f:6b:39:dd:0e:41:ec:87:c8:19:36:29:29:
         05:5c:24:8a:84:cf:fb:ed:8f:ee:c1:9e:22:e1:50:ce:42:c4:
         ca:a8:c6:3e:81:e4:9a:45:8c:74:79:83:20:cb:06:04:99:4d:
         b8:25:9c:93:0e:47:3d:00:a0:2e:27:2c:8c:39:67:ad:76:a0:
         7f:86:0f:0a:32:35:b7:11:a8:85:bb:29:78:de:44:39:00:0d:
         c6:cf:af:e6:8c:48:29:97:77:ae:93:40:e1:ba:58:59:dc:82:
         38:39:36:80:9c:4c:b0:e6:58:aa:4d:49:e2:ac:02:1a:94:74:
         e7:b9:9c:d1:0d:65:3b:74:c8:96:8d:8c:a3:7f:42:67:4b:d1:
         ac:d4:38:45:d5:1e:86:3b:35:f9:0c:6e:d6:0d:dd:c3:cf:02:
         f3:3e:7e:3f:49:13:1d:76:5b:48:c6:40:2e:67:cf:19:47:ea:
         e1:be:01:dd:85:fb:65:be:4e:2a:41:40:ec:c8:02:85:5c:9d:
         05:01:d0:72:c6:b1:2f:d4:0d:7c:6c:c8:86:36:0b:b0:6a:f2:
         34:a1:56:01:dc:f5:55:49:05:d1:46:0e:08:7a:3f:3b:37:fd:
         7a:db:11:f0:12:f5:97:77:80:22:07:32:e0:6b:23:09:d2:fb:
         55:6b:66:78:2e:1c:12:f3:8b:06:e7:dd:33:57:44:df:7b:da:
         3f:0e:a2:10:6e:04:ec:80:40:bf:48:87:c5:37:59:03:43:66:
         66:b6:a1:36:2c:dc:43:fd:5d:bf:c6:5d:37:85:c8:3f:8d:91:
         13:0f:98:a8:f1:13:66:80:3e:1a:ac:99:c7:22:68:3d:86:56:
         82:4b:b3:de:38:0b:f6:a7:81:0b:3c:48:41:a1:b5:46:62:1c:
         a1:1b:7e:d0:f1:7b:54:2f:e2:fa:b7:38:05:a8:69:1e:9e:63:
         fd:4e:5a:a9:60:4d:62:95:04:4b:50:1b:68:23:8a:94:bd:78:
         01:74:43:e2:06:ea:f4:68:8e:cb:1c:4f:06:ea:6c:df:69:04:
         e9:75:2f:d3:bb:07:ae:72:56:6e:97:e6:ff:f8:ef:d9:88:41:
         37:36:8e:aa:4a:72:28:ca:74:33:35:15:eb:7e:26:0c:16:39:
         5b:2f:20:4b:ac:c0:04:4f:30:b5:33:5f:dc:f5:2a:f0:1f:50:
         41:67:22:38:49:04:3b:80:09:4f:65:18:70:93:8d:8b:cc:d5:
         32:3e:ae:be:ab:2c:a7:fa
-----BEGIN CERTIFICATE-----
MIIFDzCCAvegAwIBAgICEBUwDQYJKoZIhvcNAQELBQAwZjFDMEEGA1UECgw6RCZP
IFRydXN0d29ydGggQ2VydGlmaWNhdGVzIC0gIlRydXN0IFVzIEZvciBZb3VyIFNl
Y3VyaXR5IjEfMB0GA1UEAwwWQ0EgZm9yIHRscy1vLW1hdGljLmNvbTAeFw0xNTAz
MDExOTQyMDdaFw0xNjAyMjkxOTQyMDdaMEAxHjAcBgNVBAoMFVdlIENoYWxsZW5n
ZSBZb3UsIEluYzEeMBwGA1UEAwwVdGVzdDgudGxzLW8tbWF0aWMuY29tMIIBIjAN
BgkqhkiG9w0BAQEFAAOCAQ8AMIIBCgKCAQEAx1s6i+mbxXty9mhK0lxTQ+b60I3U
TV7EOENVDY1JjFSYBKtmBM7OAXEY7wjt3M9jShgTg4WC+ivBPXGr7KpYaSDpeHmM
X2SQ34hH/KkLU4udkMM3ZByM3X4keq9qAANLAagt4hfncXX8YLOQIAF8dVAJnAJD
kSCM2DcABqitnaBMM/9qFgMz1Zjm1IyOmwLgKQ7TuOKQM4ESIk1arE+/5UmjPynE
ZNu5Cai7tSzpwoooIayuBkqEYqWTuUhFO5F2M0YiUA/k5sMN37pvIrba07oy270b
ALENhY1xNK4ESWER+pd0Dwq/xnrr9w3n6x13pLpAI9KvB3IZHIfTEPzCRQIDAQAB
o4HsMIHpMAkGA1UdEwQCMAAwEwYDVR0lBAwwCgYIKwYBBQUHAwEwOgYJYIZIAYb4
QgENBC0WK1RMUy1PLU1hdGljIE5vIFZhbGlkYXRpb24gQ2VydGlmaWNhdGUg8J+S
sCAwHQYDVR0OBBYEFD0fhlrfdV0xMBMk9ZBVBkmy8b+xMB8GA1UdIwQYMBaAFATW
ohoA2l4XiM8xxsqho9P3n3sqMEsGA1UdEQREMEKCD3Rscy1vLW1hdGljLmNvbYIV
dGVzdDgudGxzLW8tbWF0aWMuY29thhhzaXA6aW5mb0B0bHMtby1tYXRpYy5jb20w
DQYJKoZIhvcNAQELBQADggIBABscO91/vLrA06e8KZhdJK3N0v14BAwNaDXZTf19
Q6Oom9Ox+KojCrHtH2s53Q5B7IfIGTYpKQVcJIqEz/vtj+7BniLhUM5CxMqoxj6B
5JpFjHR5gyDLBgSZTbglnJMORz0AoC4nLIw5Z612oH+GDwoyNbcRqIW7KXjeRDkA
DcbPr+aMSCmXd66TQOG6WFncgjg5NoCcTLDmWKpNSeKsAhqUdOe5nNENZTt0yJaN
jKN/QmdL0azUOEXVHoY7NfkMbtYN3cPPAvM+fj9JEx12W0jGQC5nzxlH6uG+Ad2F
+2W+TipBQOzIAoVcnQUB0HLGsS/UDXxsyIY2C7Bq8jShVgHc9VVJBdFGDgh6Pzs3
/XrbEfAS9Zd3gCIHMuBrIwnS+1VrZnguHBLziwbn3TNXRN972j8OohBuBOyAQL9I
h8U3WQNDZma2oTYs3EP9Xb/GXTeFyD+NkRMPmKjxE2aAPhqsmcciaD2GVoJLs944
C/angQs8SEGhtUZiHKEbftDxe1Qv4vq3OAWoaR6eY/1OWqlgTWKVBEtQG2gjipS9
eAF0Q+IG6vRojsscTwbqbN9pBOl1L9O7B65yVm6X5v/479mIQTc2jqpKcijKdDM1
Fet+JgwWOVsvIEuswARPMLUzX9z1KvAfUEFnIjhJBDuACU9lGHCTjYvM1TI+rr6r
LKf6
-----END CERTIFICATE-----
