Certificate:
    Data:
        Version: 3 (0x2)
        Serial Number: 4115 (0x1013)
    Signature Algorithm: sha256WithRSAEncryption
        Issuer: O=D&O Trustworth Certificates - "Trust Us For Your Security", CN=CA for tls-o-matic.com
        Validity
            Not Before: Feb 14 22:00:00 2025 GMT
            Not After : Feb 14 22:01:01 2025 GMT
        Subject: O=Marty and Doc's Environmentally friendly cars, CN=test5.tls-o-matic.com
        Subject Public Key Info:
            Public Key Algorithm: rsaEncryption
                Public-Key: (2048 bit)
                Modulus:
                    00:a5:bd:74:e7:64:04:de:67:aa:c6:6b:f2:c5:65:
                    d4:5a:3a:84:b7:b7:39:6b:e1:7a:67:70:af:40:8f:
                    05:9e:d8:ce:af:73:c2:30:1f:65:81:28:b6:33:0b:
                    50:b1:8c:3e:55:27:d6:d7:50:7a:c7:f3:7a:fa:00:
                    53:fa:ef:d0:e2:4f:eb:6d:7c:a3:54:5f:69:42:5e:
                    18:51:18:91:eb:6d:3b:8e:75:ac:af:b3:cc:af:02:
                    d0:15:e8:ba:38:66:99:0b:9a:ac:66:1f:07:6a:b3:
                    6b:f1:8e:8a:9c:fc:d9:81:03:cb:50:e7:25:ab:e7:
                    d2:c5:60:5d:1f:cb:43:37:9a:b0:50:54:cb:f2:9b:
                    d3:72:37:90:29:fb:52:65:1b:76:20:36:b7:d1:d9:
                    d9:82:8c:eb:99:84:bc:4d:76:b6:d0:ff:88:65:62:
                    0e:a4:e3:d5:01:b9:bd:2c:44:6e:76:d7:9f:76:a3:
                    09:e4:96:a2:30:02:2f:bc:6e:4a:db:00:ad:68:bd:
                    0c:49:55:5d:ab:b2:a5:e4:3a:41:d5:01:99:83:29:
                    b5:ff:00:1e:60:f8:f5:30:35:1e:cb:41:a9:da:15:
                    5d:3f:4a:53:9e:95:77:f4:15:0a:27:ca:aa:d6:53:
                    d7:63:52:85:63:d5:36:7b:13:ad:97:00:c9:12:84:
                    02:b7
                Exponent: 65537 (0x10001)
        X509v3 extensions:
            X509v3 Basic Constraints: 
                CA:FALSE
            X509v3 Extended Key Usage: 
                TLS Web Server Authentication
            Netscape Comment: 
                TLS-O-Matic No Validation Certificate 💰 
            X509v3 Subject Key Identifier: 
                1E:68:3D:B2:AB:F2:7A:50:18:11:04:0C:B7:62:31:DB:CF:CA:76:CA
            X509v3 Authority Key Identifier: 
                keyid:04:D6:A2:1A:00:DA:5E:17:88:CF:31:C6:CA:A1:A3:D3:F7:9F:7B:2A

            X509v3 Subject Alternative Name: 
                DNS:test5.tls-o-matic.com
    Signature Algorithm: sha256WithRSAEncryption
         cc:0c:9d:04:e9:10:09:5e:2b:7c:6a:f1:77:e7:5b:57:1a:1b:
         45:a6:94:52:37:94:34:6b:b9:77:04:0a:d2:78:f8:da:6f:7a:
         ed:e8:8f:d0:7e:da:87:18:1d:1b:01:d6:35:02:20:49:08:ae:
         6b:1a:ec:98:e1:26:f0:42:bb:28:6f:a8:b3:c3:34:ee:cc:b9:
         69:73:5f:f8:7c:ab:40:9b:bb:31:52:d1:0a:f9:bc:91:da:25:
         bf:20:e9:ba:ed:e1:cf:36:c8:72:83:60:a8:8b:bb:fd:99:2f:
         d3:54:06:a3:07:f1:72:7c:05:8f:ca:dc:81:7e:da:e4:d1:0c:
         e3:7e:fa:df:74:89:6f:07:2f:f5:a5:0c:74:3b:05:e4:53:e4:
         99:ec:64:dc:71:f0:02:51:f6:cd:18:69:b8:82:71:dd:8a:93:
         96:36:92:dc:b5:13:ae:34:fa:fa:ad:d3:10:ea:85:48:01:38:
         b9:61:e9:d1:95:45:15:c1:47:a5:b3:10:33:2a:c7:70:62:a6:
         5f:44:86:3b:32:ad:1f:99:79:56:a2:6c:19:ff:10:e4:30:a5:
         d3:12:09:12:ed:19:ae:66:0e:e0:f0:cf:1d:12:19:75:31:68:
         b9:75:bb:5c:8f:a6:69:1b:4e:75:83:2d:9e:89:e2:b0:ff:8b:
         e5:1a:5b:4f:62:09:6e:e9:c8:2e:47:a4:c9:99:23:ed:12:5c:
         a7:98:94:dc:a9:88:09:72:b4:6a:ee:ca:a9:d7:a6:4c:d9:9e:
         f9:88:c6:63:16:d4:c1:25:88:05:31:07:2a:1e:57:23:9f:10:
         a3:16:b1:57:8b:66:81:7a:12:97:3f:32:01:dc:48:1a:1a:ba:
         d4:8b:2c:8e:cf:ab:68:58:82:d8:5a:83:33:89:fe:68:68:35:
         71:89:42:85:ea:a0:c7:b5:e7:09:c7:2f:60:dc:98:2b:8e:a6:
         21:28:e0:81:a0:0e:69:18:ff:09:de:58:68:49:cd:ab:34:3e:
         d5:b4:78:c6:d3:74:e1:cc:5b:4e:66:1f:3f:66:c0:d2:eb:ae:
         70:65:c6:5c:04:36:d9:83:82:a2:02:17:31:d3:35:9d:d0:05:
         b0:ab:50:db:5f:24:fe:74:0d:0b:78:1d:53:89:9d:a1:04:dc:
         c9:8f:9b:8a:35:e9:6a:7e:96:c0:64:83:66:5d:f3:0a:ac:b3:
         59:dd:e1:ad:af:fb:d2:63:85:ff:ad:d1:aa:ef:f8:81:5a:7d:
         68:78:70:42:e1:c2:bc:b0:22:4b:05:30:70:f2:5a:45:ce:c0:
         10:53:3b:51:75:48:05:34:ad:25:2a:9d:dd:59:16:fc:49:bc:
         dd:f4:d2:55:29:54:5a:0f
-----BEGIN CERTIFICATE-----
MIIE/DCCAuSgAwIBAgICEBMwDQYJKoZIhvcNAQELBQAwZjFDMEEGA1UECgw6RCZP
IFRydXN0d29ydGggQ2VydGlmaWNhdGVzIC0gIlRydXN0IFVzIEZvciBZb3VyIFNl
Y3VyaXR5IjEfMB0GA1UEAwwWQ0EgZm9yIHRscy1vLW1hdGljLmNvbTAeFw0yNTAy
MTQyMjAwMDBaFw0yNTAyMTQyMjAxMDFaMFgxNjA0BgNVBAoMLU1hcnR5IGFuZCBE
b2MncyBFbnZpcm9ubWVudGFsbHkgZnJpZW5kbHkgY2FyczEeMBwGA1UEAwwVdGVz
dDUudGxzLW8tbWF0aWMuY29tMIIBIjANBgkqhkiG9w0BAQEFAAOCAQ8AMIIBCgKC
AQEApb1052QE3meqxmvyxWXUWjqEt7c5a+F6Z3CvQI8FntjOr3PCMB9lgSi2MwtQ
sYw+VSfW11B6x/N6+gBT+u/Q4k/rbXyjVF9pQl4YURiR6207jnWsr7PMrwLQFei6
OGaZC5qsZh8HarNr8Y6KnPzZgQPLUOclq+fSxWBdH8tDN5qwUFTL8pvTcjeQKftS
ZRt2IDa30dnZgozrmYS8TXa20P+IZWIOpOPVAbm9LERudtefdqMJ5JaiMAIvvG5K
2wCtaL0MSVVdq7Kl5DpB1QGZgym1/wAeYPj1MDUey0Gp2hVdP0pTnpV39BUKJ8qq
1lPXY1KFY9U2exOtlwDJEoQCtwIDAQABo4HBMIG+MAkGA1UdEwQCMAAwEwYDVR0l
BAwwCgYIKwYBBQUHAwEwOgYJYIZIAYb4QgENBC0WK1RMUy1PLU1hdGljIE5vIFZh
bGlkYXRpb24gQ2VydGlmaWNhdGUg8J+SsCAwHQYDVR0OBBYEFB5oPbKr8npQGBEE
DLdiMdvPynbKMB8GA1UdIwQYMBaAFATWohoA2l4XiM8xxsqho9P3n3sqMCAGA1Ud
EQQZMBeCFXRlc3Q1LnRscy1vLW1hdGljLmNvbTANBgkqhkiG9w0BAQsFAAOCAgEA
zAydBOkQCV4rfGrxd+dbVxobRaaUUjeUNGu5dwQK0nj42m967eiP0H7ahxgdGwHW
NQIgSQiuaxrsmOEm8EK7KG+os8M07sy5aXNf+HyrQJu7MVLRCvm8kdolvyDpuu3h
zzbIcoNgqIu7/Zkv01QGowfxcnwFj8rcgX7a5NEM437633SJbwcv9aUMdDsF5FPk
mexk3HHwAlH2zRhpuIJx3YqTljaS3LUTrjT6+q3TEOqFSAE4uWHp0ZVFFcFHpbMQ
MyrHcGKmX0SGOzKtH5l5VqJsGf8Q5DCl0xIJEu0ZrmYO4PDPHRIZdTFouXW7XI+m
aRtOdYMtnonisP+L5RpbT2IJbunILkekyZkj7RJcp5iU3KmICXK0au7KqdemTNme
+YjGYxbUwSWIBTEHKh5XI58QoxaxV4tmgXoSlz8yAdxIGhq61Issjs+raFiC2FqD
M4n+aGg1cYlCheqgx7XnCccvYNyYK46mISjggaAOaRj/Cd5YaEnNqzQ+1bR4xtN0
4cxbTmYfP2bA0uuucGXGXAQ22YOCogIXMdM1ndAFsKtQ218k/nQNC3gdU4mdoQTc
yY+bijXpan6WwGSDZl3zCqyzWd3hra/70mOF/63Rqu/4gVp9aHhwQuHCvLAiSwUw
cPJaRc7AEFM7UXVIBTStJSqd3VkW/Em83fTSVSlUWg8=
-----END CERTIFICATE-----
