Certificate:
    Data:
        Version: 3 (0x2)
        Serial Number: 4136 (0x1028)
    Signature Algorithm: sha256WithRSAEncryption
        Issuer: O=D&O TLS-O-MATIC CERTIFICATE AUTHORITY AB, CN=tls-o-matic.com
        Validity
            Not Before: Feb 21 16:09:14 2015 GMT
            Not After : Feb 21 16:09:14 2016 GMT
        Subject: O=Arrogant Security Consultants LLC, CN=test1.tls-o-matic.com
        Subject Public Key Info:
            Public Key Algorithm: rsaEncryption
                Public-Key: (2048 bit)
                Modulus:
                    00:b3:69:b2:bc:30:1b:20:93:b3:48:aa:30:45:51:
                    9d:8a:22:cc:4c:a2:cf:19:b5:c7:7b:cb:d0:92:76:
                    c9:e8:f8:cf:6c:de:13:0a:3c:d1:61:c2:19:8f:8e:
                    d3:c3:48:74:a6:9c:4a:22:94:f8:97:d9:eb:f8:b1:
                    f5:1b:09:82:b7:7c:dc:1d:e8:d3:de:c6:32:7a:56:
                    2d:06:62:71:05:08:c9:bd:11:58:ce:ac:88:6e:28:
                    1d:92:19:48:cd:ab:e1:92:95:55:c3:ee:b0:c7:10:
                    62:4b:58:cd:99:42:d9:1a:ee:ec:08:fa:56:ef:8c:
                    76:37:a5:bc:59:f7:9c:7c:09:b7:0d:d7:35:90:8e:
                    65:4e:a1:06:70:86:25:b8:ba:72:47:45:e0:63:10:
                    46:94:47:cb:ee:2c:b3:3e:77:d0:d7:7f:79:b3:05:
                    f2:e2:67:2a:4e:ef:59:5f:b4:d5:3f:ad:e0:81:fa:
                    ad:f0:a4:20:a0:45:06:e2:e0:6f:cc:bd:52:16:75:
                    fb:af:2e:16:e1:63:b6:0a:2e:32:7c:7a:5f:ff:58:
                    7a:51:12:97:e5:9b:bf:26:5e:29:fd:07:f6:7d:a8:
                    63:bd:1b:35:ad:a5:6c:7c:e5:81:d9:e0:c3:aa:a0:
                    d7:09:4d:c3:27:36:ae:dc:3e:71:46:61:f9:56:7a:
                    48:c5
                Exponent: 65537 (0x10001)
        X509v3 extensions:
            X509v3 Basic Constraints: 
                CA:FALSE
            X509v3 Extended Key Usage: 
                TLS Web Server Authentication
            Netscape Comment: 
                TLS-O-Matic No Validation Certificate 💰 
            X509v3 Subject Key Identifier: 
                05:5F:9D:FC:16:9A:90:52:32:A0:82:B4:21:29:00:3C:75:A3:D4:5B
            X509v3 Authority Key Identifier: 
                keyid:1D:6D:58:5B:49:3A:CC:00:2B:22:20:40:42:56:DD:C7:EB:B2:73:45

            X509v3 Subject Alternative Name: 
                DNS:test1.tls-o-matic.com
    Signature Algorithm: sha256WithRSAEncryption
         a5:03:8b:29:99:ff:1c:fc:48:2b:ca:bb:ea:35:3d:41:bd:59:
         73:62:38:cf:fe:45:0e:53:48:f3:1e:0d:bf:21:ac:5c:56:dc:
         0a:7b:39:6b:b0:de:c7:19:05:37:25:98:bc:23:e2:60:2f:83:
         e5:a3:a2:0b:0a:6e:43:62:8a:ad:0b:15:cf:de:56:71:04:43:
         0a:57:31:fc:1d:f2:3e:84:df:f9:d7:cd:63:e9:db:9a:a4:c6:
         8f:ca:9e:5b:57:85:59:a2:1c:b4:01:c3:6d:07:5e:9c:3f:88:
         08:c4:30:ca:76:66:52:58:ab:f2:78:ae:46:fb:be:08:82:a2:
         f0:a8:3d:6b:aa:6e:55:92:83:08:af:a9:94:ae:7d:28:a5:15:
         d8:65:5d:0e:72:ba:8a:09:34:07:b1:06:2d:33:c1:d9:dd:fd:
         5b:8e:e8:84:50:e4:6b:28:97:dc:4e:c5:4d:42:93:07:26:dc:
         0b:72:ca:dd:af:aa:17:84:db:c7:10:b5:26:de:01:3c:e6:a0:
         45:68:ef:2f:39:a6:14:ed:53:bd:bf:4a:af:c7:9e:90:a8:06:
         03:75:5a:05:78:85:be:3b:13:5f:85:ba:9f:e9:6c:46:04:03:
         18:02:e2:b3:1c:ba:15:5d:0f:87:f9:0c:cc:b6:f7:17:c6:c9:
         87:d5:e0:3d
-----BEGIN CERTIFICATE-----
MIID1zCCAr+gAwIBAgICECgwDQYJKoZIhvcNAQELBQAwTTExMC8GA1UEChQoRCZP
IFRMUy1PLU1BVElDIENFUlRJRklDQVRFIEFVVEhPUklUWSBBQjEYMBYGA1UEAxMP
dGxzLW8tbWF0aWMuY29tMB4XDTE1MDIyMTE2MDkxNFoXDTE2MDIyMTE2MDkxNFow
TDEqMCgGA1UECgwhQXJyb2dhbnQgU2VjdXJpdHkgQ29uc3VsdGFudHMgTExDMR4w
HAYDVQQDDBV0ZXN0MS50bHMtby1tYXRpYy5jb20wggEiMA0GCSqGSIb3DQEBAQUA
A4IBDwAwggEKAoIBAQCzabK8MBsgk7NIqjBFUZ2KIsxMos8Ztcd7y9CSdsno+M9s
3hMKPNFhwhmPjtPDSHSmnEoilPiX2ev4sfUbCYK3fNwd6NPexjJ6Vi0GYnEFCMm9
EVjOrIhuKB2SGUjNq+GSlVXD7rDHEGJLWM2ZQtka7uwI+lbvjHY3pbxZ95x8CbcN
1zWQjmVOoQZwhiW4unJHReBjEEaUR8vuLLM+d9DXf3mzBfLiZypO71lftNU/reCB
+q3wpCCgRQbi4G/MvVIWdfuvLhbhY7YKLjJ8el//WHpREpflm78mXin9B/Z9qGO9
GzWtpWx85YHZ4MOqoNcJTcMnNq7cPnFGYflWekjFAgMBAAGjgcEwgb4wCQYDVR0T
BAIwADATBgNVHSUEDDAKBggrBgEFBQcDATA6BglghkgBhvhCAQ0ELRYrVExTLU8t
TWF0aWMgTm8gVmFsaWRhdGlvbiBDZXJ0aWZpY2F0ZSDwn5KwIDAdBgNVHQ4EFgQU
BV+d/BaakFIyoIK0ISkAPHWj1FswHwYDVR0jBBgwFoAUHW1YW0k6zAArIiBAQlbd
x+uyc0UwIAYDVR0RBBkwF4IVdGVzdDEudGxzLW8tbWF0aWMuY29tMA0GCSqGSIb3
DQEBCwUAA4IBAQClA4spmf8c/EgryrvqNT1BvVlzYjjP/kUOU0jzHg2/IaxcVtwK
ezlrsN7HGQU3JZi8I+JgL4Plo6ILCm5DYoqtCxXP3lZxBEMKVzH8HfI+hN/5181j
6duapMaPyp5bV4VZohy0AcNtB16cP4gIxDDKdmZSWKvyeK5G+74IgqLwqD1rqm5V
koMIr6mUrn0opRXYZV0OcrqKCTQHsQYtM8HZ3f1bjuiEUORrKJfcTsVNQpMHJtwL
csrdr6oXhNvHELUm3gE85qBFaO8vOaYU7VO9v0qvx56QqAYDdVoFeIW+OxNfhbqf
6WxGBAMYAuKzHLoVXQ+H+QzMtvcXxsmH1eA9
-----END CERTIFICATE-----
