Certificate:
    Data:
        Version: 3 (0x2)
        Serial Number: 4129 (0x1021)
    Signature Algorithm: sha256WithRSAEncryption
        Issuer: O=D&O Trustworth Certificates - "Trust Us For Your Security", CN=CA for tls-o-matic.com
        Validity
            Not Before: Mar  2 06:41:32 2015 GMT
            Not After : Mar  1 06:41:32 2016 GMT
        Subject: O=Cybercrime Security Experts INC, CN=test20.tls-o-matic.com
        Subject Public Key Info:
            Public Key Algorithm: rsaEncryption
                Public-Key: (2048 bit)
                Modulus:
                    00:c0:2e:35:48:dc:2d:21:8c:55:ce:9d:8d:d2:3f:
                    74:61:cc:47:8d:c6:da:75:e0:f0:e6:61:38:db:3f:
                    e9:d2:ee:48:05:e7:6e:1b:0d:bb:04:5d:c8:99:0a:
                    eb:1e:44:5e:18:30:fc:33:94:f4:e4:e3:16:07:70:
                    ac:bc:7a:e2:9b:f2:f2:af:22:85:05:84:c3:b3:bc:
                    d6:db:40:b7:08:e7:48:0f:c2:a2:19:7d:2c:6a:90:
                    05:61:7b:ac:9b:89:95:af:39:75:c7:e0:e2:42:c7:
                    b1:c6:14:4e:98:f0:d7:3d:98:bf:b9:dc:11:66:6a:
                    14:d7:40:85:b0:9f:26:98:1f:66:0c:6b:cd:73:56:
                    08:9d:79:ac:cb:26:e3:7e:9a:1f:78:84:d7:36:92:
                    47:58:4c:db:25:c7:a0:58:9e:ec:97:ab:88:2c:0d:
                    74:b5:6d:fa:cb:c3:f7:2a:e6:f2:8d:e4:8c:0f:59:
                    f0:b7:ac:eb:91:7c:13:6a:06:c2:01:87:01:0f:47:
                    ae:a4:f1:c5:03:8d:aa:1b:85:4b:11:38:6d:2f:5c:
                    30:f5:d0:49:22:45:e4:5c:66:a5:34:03:68:62:38:
                    d1:17:fa:ea:a3:be:b3:68:1f:c4:84:9e:10:a6:5d:
                    28:90:9b:a1:c1:9a:dc:97:96:eb:d5:97:7c:81:6b:
                    51:fb
                Exponent: 65537 (0x10001)
        X509v3 extensions:
            X509v3 Basic Constraints: 
                CA:FALSE
            X509v3 Extended Key Usage: 
                TLS Web Server Authentication
            Netscape Comment: 
                TLS-O-Matic No Validation Certificate 💰 
            X509v3 Subject Key Identifier: 
                A7:5A:85:21:64:EF:28:2C:60:D0:F8:D6:D8:E4:E8:94:E3:4E:F6:8A
            X509v3 Authority Key Identifier: 
                keyid:04:D6:A2:1A:00:DA:5E:17:88:CF:31:C6:CA:A1:A3:D3:F7:9F:7B:2A

            X509v3 Subject Alternative Name: 
                DNS:test20.tls-o-matic.com
    Signature Algorithm: sha256WithRSAEncryption
         34:9e:dc:12:a2:36:d8:87:70:be:8e:90:d4:5b:72:3a:04:e6:
         ee:f0:32:ce:1c:1c:a7:c1:f1:c4:44:79:62:5a:a2:96:c1:ff:
         f4:7b:c6:8b:dc:3d:fe:08:3d:2e:ef:85:94:02:42:49:b3:e9:
         60:f7:95:51:1d:92:21:49:0f:d9:ed:30:48:54:a5:ea:12:93:
         1c:80:a4:1c:9d:2e:47:2e:df:d8:0e:15:de:99:53:74:b1:ef:
         de:11:78:43:f3:c8:35:76:1d:bd:5b:e2:53:b2:01:10:a6:66:
         7e:6d:a4:ad:a0:f6:e3:69:6f:64:fe:dd:8f:c0:dc:89:a7:47:
         2e:72:7a:30:2a:60:22:92:1b:2e:92:e5:83:2c:7d:dc:10:2c:
         5d:6f:a3:15:87:86:bd:1d:76:bf:6e:ad:2c:98:39:92:e3:17:
         25:31:64:b2:d0:43:8b:00:e8:2e:f9:7f:37:49:ed:59:a4:c9:
         e7:57:12:2f:1b:00:1a:10:77:f2:67:f5:01:4e:d0:95:a1:f3:
         55:1e:55:51:a1:e1:70:e8:a7:1a:e0:5c:92:e4:d0:73:44:8d:
         27:11:4b:e6:57:9c:55:cf:ac:f7:b4:1b:42:09:a1:80:f3:14:
         7e:ec:42:4a:78:7e:85:35:22:69:f6:f0:4e:bb:09:2a:47:96:
         ab:62:26:22:13:ee:b6:6b:1e:df:33:82:c4:76:ce:03:dd:a0:
         d1:a4:d3:ba:0d:9d:8a:dd:dd:d5:a2:c4:e4:7d:9f:9a:53:e6:
         26:eb:1d:16:e8:ed:05:ee:05:9f:93:8d:df:d1:a4:3a:e2:53:
         0e:e1:6f:b4:2d:75:94:27:b3:e5:03:fd:2b:64:82:ff:92:67:
         1e:66:e0:24:f3:91:7f:08:ec:e3:fd:18:ab:6e:12:8c:0a:9f:
         2b:89:d4:3d:43:4c:4f:df:d5:52:13:59:d5:65:a6:fd:ba:32:
         45:d0:c2:db:9d:f7:33:ca:04:6b:53:13:20:df:34:10:9b:7b:
         e1:b7:02:51:52:00:dd:5d:c5:10:b4:7c:3e:34:66:3b:8c:fe:
         f1:f9:82:6f:8f:27:a2:63:a3:bc:e1:61:dc:0d:83:79:0d:a8:
         b4:e5:80:84:b5:af:d1:bc:75:a4:65:22:c8:c7:c9:87:c8:3c:
         37:f7:7a:01:14:9a:64:ab:08:7b:a9:fc:7a:36:de:7a:b1:3b:
         6b:3f:66:92:ee:1d:41:f6:c2:b6:48:4d:d0:2b:20:a3:c4:c0:
         7e:ac:73:a4:9b:e9:77:1e:94:c0:c2:2a:38:e7:64:65:be:cb:
         c7:97:f2:da:b0:f4:a9:e1:c5:cc:28:8a:5b:cc:0b:52:5b:77:
         14:1a:ea:6a:39:28:f7:64
-----BEGIN CERTIFICATE-----
MIIE8DCCAtigAwIBAgICECEwDQYJKoZIhvcNAQELBQAwZjFDMEEGA1UECgw6RCZP
IFRydXN0d29ydGggQ2VydGlmaWNhdGVzIC0gIlRydXN0IFVzIEZvciBZb3VyIFNl
Y3VyaXR5IjEfMB0GA1UEAwwWQ0EgZm9yIHRscy1vLW1hdGljLmNvbTAeFw0xNTAz
MDIwNjQxMzJaFw0xNjAzMDEwNjQxMzJaMEsxKDAmBgNVBAoMH0N5YmVyY3JpbWUg
U2VjdXJpdHkgRXhwZXJ0cyBJTkMxHzAdBgNVBAMMFnRlc3QyMC50bHMtby1tYXRp
Yy5jb20wggEiMA0GCSqGSIb3DQEBAQUAA4IBDwAwggEKAoIBAQDALjVI3C0hjFXO
nY3SP3RhzEeNxtp14PDmYTjbP+nS7kgF524bDbsEXciZCuseRF4YMPwzlPTk4xYH
cKy8euKb8vKvIoUFhMOzvNbbQLcI50gPwqIZfSxqkAVhe6ybiZWvOXXH4OJCx7HG
FE6Y8Nc9mL+53BFmahTXQIWwnyaYH2YMa81zVgideazLJuN+mh94hNc2kkdYTNsl
x6BYnuyXq4gsDXS1bfrLw/cq5vKN5IwPWfC3rOuRfBNqBsIBhwEPR66k8cUDjaob
hUsROG0vXDD10EkiReRcZqU0A2hiONEX+uqjvrNoH8SEnhCmXSiQm6HBmtyXluvV
l3yBa1H7AgMBAAGjgcIwgb8wCQYDVR0TBAIwADATBgNVHSUEDDAKBggrBgEFBQcD
ATA6BglghkgBhvhCAQ0ELRYrVExTLU8tTWF0aWMgTm8gVmFsaWRhdGlvbiBDZXJ0
aWZpY2F0ZSDwn5KwIDAdBgNVHQ4EFgQUp1qFIWTvKCxg0PjW2OTolONO9oowHwYD
VR0jBBgwFoAUBNaiGgDaXheIzzHGyqGj0/efeyowIQYDVR0RBBowGIIWdGVzdDIw
LnRscy1vLW1hdGljLmNvbTANBgkqhkiG9w0BAQsFAAOCAgEANJ7cEqI22Idwvo6Q
1FtyOgTm7vAyzhwcp8HxxER5YlqilsH/9HvGi9w9/gg9Lu+FlAJCSbPpYPeVUR2S
IUkP2e0wSFSl6hKTHICkHJ0uRy7f2A4V3plTdLHv3hF4Q/PINXYdvVviU7IBEKZm
fm2kraD242lvZP7dj8DciadHLnJ6MCpgIpIbLpLlgyx93BAsXW+jFYeGvR12v26t
LJg5kuMXJTFkstBDiwDoLvl/N0ntWaTJ51cSLxsAGhB38mf1AU7QlaHzVR5VUaHh
cOinGuBckuTQc0SNJxFL5lecVc+s97QbQgmhgPMUfuxCSnh+hTUiafbwTrsJKkeW
q2ImIhPutmse3zOCxHbOA92g0aTTug2dit3d1aLE5H2fmlPmJusdFujtBe4Fn5ON
39GkOuJTDuFvtC11lCez5QP9K2SC/5JnHmbgJPORfwjs4/0Yq24SjAqfK4nUPUNM
T9/VUhNZ1WWm/boyRdDC2533M8oEa1MTIN80EJt74bcCUVIA3V3FELR8PjRmO4z+
8fmCb48nomOjvOFh3A2DeQ2otOWAhLWv0bx1pGUiyMfJh8g8N/d6ARSaZKsIe6n8
ejbeerE7az9mku4dQfbCtkhN0Csgo8TAfqxzpJvpdx6UwMIqOOdkZb7Lx5fy2rD0
qeHFzCiKW8wLUlt3FBrqajko92Q=
-----END CERTIFICATE-----
