Certificate:
    Data:
        Version: 3 (0x2)
        Serial Number: 4132 (0x1024)
    Signature Algorithm: sha256WithRSAEncryption
        Issuer: O=D&O TLS-O-MATIC CERTIFICATE AUTHORITY AB, CN=tls-o-matic.com
        Validity
            Not Before: Feb 21 20:10:49 2015 GMT
            Not After : Feb 21 20:10:49 2016 GMT
        Subject: O=Ting Tagel Upside Down and Inside Out Non-Restful Services Inc, CN=test14.tls-o-matic.com
        Subject Public Key Info:
            Public Key Algorithm: rsaEncryption
                Public-Key: (4096 bit)
                Modulus:
                    00:b9:80:cc:5f:53:9e:a4:02:c9:92:6c:1e:42:56:
                    61:c9:50:e4:8d:68:d2:e6:d0:ce:a8:75:3f:56:53:
                    0d:88:2e:c8:eb:94:70:5d:3b:91:ba:43:77:d0:73:
                    17:1c:7a:6a:42:5f:84:b9:91:f3:9d:c1:95:c1:f6:
                    a8:60:82:3b:39:10:be:23:da:cf:2e:dc:2a:50:ee:
                    46:df:e3:6d:ef:ca:5e:df:e5:b8:45:ae:a5:1a:d2:
                    7b:bf:9f:8b:a4:f9:84:1d:76:7f:f1:68:73:ce:83:
                    9f:3b:e3:19:71:74:11:8c:b0:08:4a:f3:c0:65:8e:
                    f3:38:31:fc:18:eb:88:e6:ab:64:57:e6:b3:c2:a2:
                    98:5b:fa:3c:7f:47:07:54:d3:bf:c2:e2:96:c3:da:
                    3a:dd:b6:6c:68:db:99:de:cc:24:9e:6c:4a:cc:89:
                    95:5b:f4:8f:0e:f2:85:37:14:d5:18:b4:0f:da:dd:
                    f2:e1:60:57:f1:aa:ac:06:cf:bc:bb:56:2e:08:4f:
                    cd:89:77:26:9a:e2:c6:42:26:65:18:25:31:65:fb:
                    b6:15:4f:64:79:6c:08:05:fb:6a:b4:58:5b:8d:4d:
                    df:15:a6:08:48:27:f2:b1:30:12:0b:83:eb:d0:48:
                    55:af:32:3b:12:ca:58:59:31:26:7c:5d:87:cb:db:
                    6d:5e:65:d6:31:f4:27:7f:13:02:a8:4e:8a:dc:2e:
                    4c:4c:f8:4f:83:b3:7b:c2:c2:5f:16:42:f0:0a:9c:
                    48:a4:91:25:9d:f8:eb:a7:a4:18:c2:87:e6:6b:da:
                    b7:4a:cb:7a:9f:43:a7:e0:a6:2d:0d:26:a3:98:bb:
                    31:32:d7:fe:aa:c1:82:b6:fd:79:3e:23:20:ed:c4:
                    05:ee:be:d0:c8:e0:b7:68:26:7e:7f:71:1e:98:1c:
                    fc:87:6e:86:38:c0:6d:1a:fd:aa:1b:ac:ad:c6:d2:
                    4e:d0:bf:91:7f:40:c6:97:bd:fd:fc:58:9b:0b:f5:
                    41:04:08:d9:6e:2e:a9:56:4e:83:9f:cc:ad:58:ac:
                    19:81:da:ec:d0:7d:c6:da:ee:c6:43:63:af:bd:1f:
                    a7:99:c1:d8:7e:61:d5:ed:cb:92:3d:c3:d9:e5:23:
                    df:e2:06:33:60:be:39:62:2e:5d:92:40:4e:35:87:
                    1f:87:d2:2f:9b:20:70:af:46:18:49:a2:6d:e1:6a:
                    96:c4:fd:88:f4:d5:28:fe:42:23:a0:45:59:59:ef:
                    cb:29:10:15:1c:ea:83:74:6e:36:22:19:d4:c0:e8:
                    f9:e7:3e:7e:a1:37:28:14:93:b7:b8:7b:ab:20:db:
                    a7:84:dc:13:a9:11:ee:e5:05:1e:da:10:04:34:5d:
                    e2:77:11
                Exponent: 65537 (0x10001)
        X509v3 extensions:
            X509v3 Basic Constraints: 
                CA:FALSE
            X509v3 Subject Alternative Name: 
                DNS:test14.tls-o-matic.com
            X509v3 Subject Key Identifier: 
                9F:EF:82:1F:5C:A4:D4:A1:FF:C6:90:26:A5:10:4F:F8:00:84:AD:64
            X509v3 Key Usage: 
                Digital Signature, Non Repudiation, Key Encipherment, Data Encipherment, Certificate Sign, Encipher Only
            X509v3 Extended Key Usage: 
                E-mail Protection
    Signature Algorithm: sha256WithRSAEncryption
         b5:c2:c0:d1:92:eb:e4:36:e4:8a:e7:45:a7:7c:d9:42:90:44:
         54:56:83:a3:e0:d3:52:87:9f:6c:34:76:db:71:a7:67:3c:66:
         fc:74:15:b6:f6:a3:35:81:12:f3:50:06:b2:26:91:e6:14:7a:
         71:90:b8:68:7c:3a:a3:1d:cc:86:aa:f2:6b:7b:0e:ef:2a:1e:
         45:3f:82:02:b5:e6:02:59:05:3e:ba:55:11:8e:92:96:69:17:
         57:d4:62:3e:31:50:a1:8c:88:8d:79:3d:0f:a2:40:a3:1a:b5:
         98:49:d6:27:b4:95:75:db:a7:a8:74:36:51:54:d5:42:ce:3c:
         15:f0:46:24:0f:ec:01:f1:1e:8d:6b:97:94:c7:63:e9:7e:85:
         b8:2d:5d:71:e9:28:6c:0c:65:b4:66:5b:59:9e:6b:2d:73:17:
         4b:20:9f:2c:35:d0:8b:51:3d:c6:82:69:05:bc:ab:32:04:63:
         d2:9b:4f:aa:af:a1:0b:8b:3f:7a:41:d9:bd:6b:77:8a:dd:5e:
         2a:f3:aa:47:29:c9:d8:0e:46:57:d6:ad:48:76:64:6f:74:18:
         47:64:c9:6c:7c:05:c7:2f:d7:6e:f0:51:21:1d:7a:8f:71:ea:
         d7:14:5e:3c:6c:65:9c:b0:ef:5e:fb:ba:93:f3:7f:2d:d2:80:
         f0:53:30:c1
-----BEGIN CERTIFICATE-----
MIIEpDCCA4ygAwIBAgICECQwDQYJKoZIhvcNAQELBQAwTTExMC8GA1UEChQoRCZP
IFRMUy1PLU1BVElDIENFUlRJRklDQVRFIEFVVEhPUklUWSBBQjEYMBYGA1UEAxMP
dGxzLW8tbWF0aWMuY29tMB4XDTE1MDIyMTIwMTA0OVoXDTE2MDIyMTIwMTA0OVow
ajFHMEUGA1UECgw+VGluZyBUYWdlbCBVcHNpZGUgRG93biBhbmQgSW5zaWRlIE91
dCBOb24tUmVzdGZ1bCBTZXJ2aWNlcyBJbmMxHzAdBgNVBAMMFnRlc3QxNC50bHMt
by1tYXRpYy5jb20wggIiMA0GCSqGSIb3DQEBAQUAA4ICDwAwggIKAoICAQC5gMxf
U56kAsmSbB5CVmHJUOSNaNLm0M6odT9WUw2ILsjrlHBdO5G6Q3fQcxccempCX4S5
kfOdwZXB9qhggjs5EL4j2s8u3CpQ7kbf423vyl7f5bhFrqUa0nu/n4uk+YQddn/x
aHPOg5874xlxdBGMsAhK88BljvM4MfwY64jmq2RX5rPCophb+jx/RwdU07/C4pbD
2jrdtmxo25nezCSebErMiZVb9I8O8oU3FNUYtA/a3fLhYFfxqqwGz7y7Vi4IT82J
dyaa4sZCJmUYJTFl+7YVT2R5bAgF+2q0WFuNTd8VpghIJ/KxMBILg+vQSFWvMjsS
ylhZMSZ8XYfL221eZdYx9Cd/EwKoTorcLkxM+E+Ds3vCwl8WQvAKnEikkSWd+Oun
pBjCh+Zr2rdKy3qfQ6fgpi0NJqOYuzEy1/6qwYK2/Xk+IyDtxAXuvtDI4LdoJn5/
cR6YHPyHboY4wG0a/aobrK3G0k7Qv5F/QMaXvf38WJsL9UEECNluLqlWToOfzK1Y
rBmB2uzQfcba7sZDY6+9H6eZwdh+YdXty5I9w9nlI9/iBjNgvjliLl2SQE41hx+H
0i+bIHCvRhhJom3hapbE/Yj01Sj+QiOgRVlZ78spEBUc6oN0bjYiGdTA6PnnPn6h
NygUk7e4e6sg26eE3BOpEe7lBR7aEAQ0XeJ3EQIDAQABo3EwbzAJBgNVHRMEAjAA
MCEGA1UdEQQaMBiCFnRlc3QxNC50bHMtby1tYXRpYy5jb20wHQYDVR0OBBYEFJ/v
gh9cpNSh/8aQJqUQT/gAhK1kMAsGA1UdDwQEAwIA9TATBgNVHSUEDDAKBggrBgEF
BQcDBDANBgkqhkiG9w0BAQsFAAOCAQEAtcLA0ZLr5DbkiudFp3zZQpBEVFaDo+DT
UoefbDR223GnZzxm/HQVtvajNYES81AGsiaR5hR6cZC4aHw6ox3Mhqrya3sO7yoe
RT+CArXmAlkFPrpVEY6SlmkXV9RiPjFQoYyIjXk9D6JAoxq1mEnWJ7SVddunqHQ2
UVTVQs48FfBGJA/sAfEejWuXlMdj6X6FuC1dcekobAxltGZbWZ5rLXMXSyCfLDXQ
i1E9xoJpBbyrMgRj0ptPqq+hC4s/ekHZvWt3it1eKvOqRynJ2A5GV9atSHZkb3QY
R2TJbHwFxy/XbvBRIR16j3Hq1xRePGxlnLDvXvu6k/N/LdKA8FMwwQ==
-----END CERTIFICATE-----
