Certificate:
    Data:
        Version: 3 (0x2)
        Serial Number: 4120 (0x1018)
    Signature Algorithm: sha256WithRSAEncryption
        Issuer: O=Intermediate 1 tls-o-matic.com, CN=TLS-o-matic-intermediate-1
        Validity
            Not Before: Mar  1 19:50:14 2015 GMT
            Not After : Feb 29 19:50:14 2016 GMT
        Subject: O=Intermediate 2 tls-o-matic.com, CN=TLS-o-matic-intermediate-2
        Subject Public Key Info:
            Public Key Algorithm: rsaEncryption
                Public-Key: (2048 bit)
                Modulus:
                    00:f5:0d:24:2f:41:74:69:b6:6e:52:cc:74:d7:b4:
                    95:4b:73:3a:fc:e3:25:2e:74:cc:fb:ae:96:58:88:
                    49:3e:f4:3d:16:fb:58:19:66:28:32:28:a7:1a:59:
                    39:8f:46:8e:97:fa:f3:88:bf:ed:f8:70:d6:a2:8a:
                    be:0b:b0:1b:00:c2:f1:b9:f9:db:cc:e5:48:a3:5a:
                    f2:fd:ac:57:c4:66:2b:7c:04:51:7b:b7:4b:7d:7e:
                    73:8e:67:e9:2b:e2:85:81:05:17:3c:55:27:8d:b1:
                    7b:02:d4:12:8d:78:4a:89:eb:34:8d:52:23:db:8f:
                    cd:56:e0:31:54:16:12:d5:93:c7:57:d1:68:1f:2f:
                    9c:91:da:17:7d:ba:f4:d2:ac:84:b9:2f:fc:df:7a:
                    ca:cf:0a:8b:95:4f:ee:42:32:61:ee:5d:bb:24:07:
                    3e:3e:ed:7c:9d:f0:8a:32:5c:3a:57:df:e5:bf:05:
                    b4:32:68:dc:65:0d:5b:7e:87:91:ce:42:a2:8e:eb:
                    51:e5:db:c4:68:df:9c:a6:f7:32:f7:26:7d:2b:02:
                    0a:d7:be:c3:c7:84:93:f5:f2:0b:2a:71:3c:52:ca:
                    4e:1c:6a:d9:90:17:35:53:fd:37:b6:ea:ab:b4:2e:
                    be:f2:68:bb:12:21:41:38:45:04:dc:d8:27:09:ec:
                    5d:0f
                Exponent: 65537 (0x10001)
        X509v3 extensions:
            X509v3 Basic Constraints: 
                CA:TRUE
            Netscape Comment: 
                TLS-O-Matic Intermediate Certificate 🔐  . This is one in a chain that you have to verify 
            X509v3 Subject Key Identifier: 
                C7:06:A4:31:8B:D4:18:D7:3A:80:9B:1E:E4:75:BA:12:20:63:BF:6A
            X509v3 Authority Key Identifier: 
                keyid:8F:6B:1F:E7:9D:35:5C:3C:D4:EA:1B:79:A5:83:AD:FE:97:9A:8B:D1

            X509v3 Subject Alternative Name: 
                email:ca@tls-o-matic.com
            X509v3 Issuer Alternative Name: 
                email:ca@tls-o-matic.com
            Netscape CA Revocation Url: 
                https://www.tls-o-matic.com/we-never-revoke-ha-ha-ha/ca/
            Netscape Revocation Url: 
                https://www.tls-o-matic.com/we-never-revoke-ha-ha-ha/
            Netscape Renewal Url: 
                https://www.tls-o-matic.com/renew/
            Netscape CA Policy Url: 
                https://www.tls-o-matic.com/policy/
    Signature Algorithm: sha256WithRSAEncryption
         c9:05:59:16:45:0a:31:57:c6:d7:56:18:72:55:bb:cd:1c:3e:
         0c:46:a6:a0:d4:e6:cf:d0:2f:38:b0:34:f1:1d:7d:c8:df:c0:
         ea:79:59:09:e0:88:d9:f9:7a:0b:b4:9f:62:82:8f:97:b7:3e:
         57:34:52:58:f3:4b:c5:02:3f:ac:75:21:95:bc:81:b2:e5:36:
         98:f1:6e:aa:1d:df:b8:d5:bf:03:a5:64:9c:ba:59:a9:1e:29:
         db:12:19:8f:a2:43:68:5f:3f:17:41:7b:bd:fa:98:84:39:2e:
         39:43:04:6c:43:49:96:1a:d8:1a:5a:c9:4f:86:8a:7c:b8:bf:
         20:ba:b2:0d:77:2b:00:ea:db:b8:0f:f8:f6:e2:9d:1e:62:97:
         1c:4b:51:40:9c:bd:e2:90:e2:fe:9f:35:03:de:89:73:17:57:
         c7:4d:90:d3:c3:3b:c6:3f:32:65:bf:16:a9:e9:b0:f8:2b:82:
         22:48:f1:7d:49:47:da:a3:96:a9:0e:b5:6e:22:e9:ec:36:65:
         29:96:fd:c2:b4:d3:62:7e:e1:5e:9d:ec:cc:da:25:64:5a:dc:
         bd:a3:11:0f:1a:b1:19:bc:86:bf:a0:a0:f6:de:ed:4d:28:1d:
         c5:67:74:bb:a1:df:25:1a:e1:83:8b:37:ff:2a:7f:4e:94:9d:
         7c:f2:e3:e4
-----BEGIN CERTIFICATE-----
MIIFDTCCA/WgAwIBAgICEBgwDQYJKoZIhvcNAQELBQAwTjEnMCUGA1UECgweSW50
ZXJtZWRpYXRlIDEgdGxzLW8tbWF0aWMuY29tMSMwIQYDVQQDDBpUTFMtby1tYXRp
Yy1pbnRlcm1lZGlhdGUtMTAeFw0xNTAzMDExOTUwMTRaFw0xNjAyMjkxOTUwMTRa
ME4xJzAlBgNVBAoMHkludGVybWVkaWF0ZSAyIHRscy1vLW1hdGljLmNvbTEjMCEG
A1UEAwwaVExTLW8tbWF0aWMtaW50ZXJtZWRpYXRlLTIwggEiMA0GCSqGSIb3DQEB
AQUAA4IBDwAwggEKAoIBAQD1DSQvQXRptm5SzHTXtJVLczr84yUudMz7rpZYiEk+
9D0W+1gZZigyKKcaWTmPRo6X+vOIv+34cNaiir4LsBsAwvG5+dvM5UijWvL9rFfE
Zit8BFF7t0t9fnOOZ+kr4oWBBRc8VSeNsXsC1BKNeEqJ6zSNUiPbj81W4DFUFhLV
k8dX0WgfL5yR2hd9uvTSrIS5L/zfesrPCouVT+5CMmHuXbskBz4+7Xyd8IoyXDpX
3+W/BbQyaNxlDVt+h5HOQqKO61Hl28Ro35ym9zL3Jn0rAgrXvsPHhJP18gsqcTxS
yk4catmQFzVT/Te26qu0Lr7yaLsSIUE4RQTc2CcJ7F0PAgMBAAGjggHzMIIB7zAM
BgNVHRMEBTADAQH/MGsGCWCGSAGG+EIBDQReFlxUTFMtTy1NYXRpYyBJbnRlcm1l
ZGlhdGUgQ2VydGlmaWNhdGUg8J+UkCAgLiBUaGlzIGlzIG9uZSBpbiBhIGNoYWlu
IHRoYXQgeW91IGhhdmUgdG8gdmVyaWZ5IDAdBgNVHQ4EFgQUxwakMYvUGNc6gJse
5HW6EiBjv2owHwYDVR0jBBgwFoAUj2sf5501XDzU6ht5pYOt/peai9EwHQYDVR0R
BBYwFIESY2FAdGxzLW8tbWF0aWMuY29tMB0GA1UdEgQWMBSBEmNhQHRscy1vLW1h
dGljLmNvbTBHBglghkgBhvhCAQQEOhY4aHR0cHM6Ly93d3cudGxzLW8tbWF0aWMu
Y29tL3dlLW5ldmVyLXJldm9rZS1oYS1oYS1oYS9jYS8wRAYJYIZIAYb4QgEDBDcW
NWh0dHBzOi8vd3d3LnRscy1vLW1hdGljLmNvbS93ZS1uZXZlci1yZXZva2UtaGEt
aGEtaGEvMDEGCWCGSAGG+EIBBwQkFiJodHRwczovL3d3dy50bHMtby1tYXRpYy5j
b20vcmVuZXcvMDIGCWCGSAGG+EIBCAQlFiNodHRwczovL3d3dy50bHMtby1tYXRp
Yy5jb20vcG9saWN5LzANBgkqhkiG9w0BAQsFAAOCAQEAyQVZFkUKMVfG11YYclW7
zRw+DEamoNTmz9AvOLA08R19yN/A6nlZCeCI2fl6C7SfYoKPl7c+VzRSWPNLxQI/
rHUhlbyBsuU2mPFuqh3fuNW/A6VknLpZqR4p2xIZj6JDaF8/F0F7vfqYhDkuOUME
bENJlhrYGlrJT4aKfLi/ILqyDXcrAOrbuA/49uKdHmKXHEtRQJy94pDi/p81A96J
cxdXx02Q08M7xj8yZb8Wqemw+CuCIkjxfUlH2qOWqQ61biLp7DZlKZb9wrTTYn7h
Xp3szNolZFrcvaMRDxqxGbyGv6Cg9t7tTSgdxWd0u6HfJRrhg4s3/yp/TpSdfPLj
5A==
-----END CERTIFICATE-----
