Certificate:
    Data:
        Version: 3 (0x2)
        Serial Number: 4121 (0x1019)
    Signature Algorithm: sha256WithRSAEncryption
        Issuer: O=Intermediate 2 tls-o-matic.com, CN=TLS-o-matic-intermediate-2
        Validity
            Not Before: Mar  1 19:50:23 2015 GMT
            Not After : Feb 29 19:50:23 2016 GMT
        Subject: O=Intermediate 3 tls-o-matic.com, CN=TLS-o-matic-intermediate-3
        Subject Public Key Info:
            Public Key Algorithm: rsaEncryption
                Public-Key: (2048 bit)
                Modulus:
                    00:cc:ab:de:f1:3c:f0:4a:f2:a9:66:8b:a4:98:c3:
                    44:34:45:8c:e4:04:c4:9f:d7:70:23:4e:8a:46:2e:
                    cb:1c:e4:86:13:85:f1:a1:66:d2:a8:43:5c:62:65:
                    6e:38:fc:77:c4:4b:b2:2d:92:a0:2b:50:82:85:76:
                    d4:4f:94:d6:df:7d:e9:a4:88:d8:9d:d5:79:f7:62:
                    97:f7:75:0e:3a:db:37:c6:29:26:97:6a:ef:cf:b1:
                    b1:23:db:9b:26:0d:a4:93:c8:7d:97:43:fe:c2:71:
                    4c:0f:c5:be:72:92:d8:81:3b:66:a3:0a:3c:de:2e:
                    38:f3:27:d6:a0:4f:10:75:94:ed:27:f9:b9:ac:55:
                    91:c8:65:73:43:61:23:56:9a:63:78:71:de:07:a4:
                    a8:eb:6b:a7:12:3b:67:3d:45:f3:79:d5:1d:1c:95:
                    ea:ec:fa:38:3f:9a:fc:85:f1:31:7d:8d:e6:22:35:
                    e7:7e:65:cd:f1:b8:37:c8:ea:67:09:d6:44:c6:26:
                    f0:25:18:c6:5b:48:f4:54:7f:d5:89:d8:03:1f:41:
                    d7:ca:43:0d:f2:f2:bc:ec:b6:ec:17:89:80:35:cc:
                    97:79:50:a8:1a:c3:6a:0a:61:d3:ce:75:02:75:e8:
                    04:a2:ee:ef:57:49:f0:3e:ad:c9:e4:eb:6c:91:20:
                    bc:67
                Exponent: 65537 (0x10001)
        X509v3 extensions:
            X509v3 Basic Constraints: 
                CA:TRUE
            Netscape Comment: 
                TLS-O-Matic Intermediate Certificate 🔐  . This is one in a chain that you have to verify 
            X509v3 Subject Key Identifier: 
                E0:BB:81:ED:46:79:DE:02:CC:83:1F:8A:96:A3:E7:64:38:90:65:DB
            X509v3 Authority Key Identifier: 
                keyid:C7:06:A4:31:8B:D4:18:D7:3A:80:9B:1E:E4:75:BA:12:20:63:BF:6A

            X509v3 Subject Alternative Name: 
                email:ca@tls-o-matic.com
            X509v3 Issuer Alternative Name: 
                email:ca@tls-o-matic.com
            Netscape CA Revocation Url: 
                https://www.tls-o-matic.com/we-never-revoke-ha-ha-ha/ca/
            Netscape Revocation Url: 
                https://www.tls-o-matic.com/we-never-revoke-ha-ha-ha/
            Netscape Renewal Url: 
                https://www.tls-o-matic.com/renew/
            Netscape CA Policy Url: 
                https://www.tls-o-matic.com/policy/
    Signature Algorithm: sha256WithRSAEncryption
         bf:61:80:9c:5e:05:e6:50:93:30:5d:37:72:54:9d:a7:2c:4e:
         51:0b:12:3f:46:48:c6:b5:87:2e:52:ea:6f:2a:d5:ec:e9:7d:
         ec:d1:48:ad:1d:3e:7f:03:6f:f6:1a:bd:37:9a:07:21:a4:2e:
         12:87:65:7c:90:49:09:3e:09:16:83:55:30:b8:6d:b7:e3:5e:
         39:5e:a9:6d:f9:73:1a:38:3b:bd:be:9e:25:bf:b6:31:c7:21:
         30:40:f9:19:31:db:f7:26:1a:c3:bc:7f:30:79:45:f5:7b:b5:
         7d:cb:a2:20:68:c1:0f:ce:86:73:05:37:1b:4b:e0:65:88:85:
         24:55:f5:77:9f:16:b5:38:82:0c:02:3d:fb:57:69:fc:17:7c:
         53:c3:e5:a3:eb:8f:c2:56:04:5b:2e:5a:3c:33:a9:8a:a5:3e:
         eb:5f:9d:02:90:34:8d:4d:a4:ec:4d:8d:bd:24:74:12:d5:54:
         47:a8:a6:a5:28:ed:48:c8:25:15:e9:37:9f:c0:37:82:61:b9:
         4b:f9:5f:6e:23:eb:4d:b2:bd:4c:f9:10:df:ef:ed:87:a9:d2:
         21:7c:af:ac:a1:52:e3:11:34:ff:e2:e4:71:eb:e4:39:46:eb:
         bf:9f:69:12:54:95:f0:ab:aa:5b:4c:3c:41:3e:66:d1:5c:c2:
         7e:95:26:57
-----BEGIN CERTIFICATE-----
MIIFDTCCA/WgAwIBAgICEBkwDQYJKoZIhvcNAQELBQAwTjEnMCUGA1UECgweSW50
ZXJtZWRpYXRlIDIgdGxzLW8tbWF0aWMuY29tMSMwIQYDVQQDDBpUTFMtby1tYXRp
Yy1pbnRlcm1lZGlhdGUtMjAeFw0xNTAzMDExOTUwMjNaFw0xNjAyMjkxOTUwMjNa
ME4xJzAlBgNVBAoMHkludGVybWVkaWF0ZSAzIHRscy1vLW1hdGljLmNvbTEjMCEG
A1UEAwwaVExTLW8tbWF0aWMtaW50ZXJtZWRpYXRlLTMwggEiMA0GCSqGSIb3DQEB
AQUAA4IBDwAwggEKAoIBAQDMq97xPPBK8qlmi6SYw0Q0RYzkBMSf13AjTopGLssc
5IYThfGhZtKoQ1xiZW44/HfES7ItkqArUIKFdtRPlNbffemkiNid1Xn3Ypf3dQ46
2zfGKSaXau/PsbEj25smDaSTyH2XQ/7CcUwPxb5yktiBO2ajCjzeLjjzJ9agTxB1
lO0n+bmsVZHIZXNDYSNWmmN4cd4HpKjra6cSO2c9RfN51R0clers+jg/mvyF8TF9
jeYiNed+Zc3xuDfI6mcJ1kTGJvAlGMZbSPRUf9WJ2AMfQdfKQw3y8rzstuwXiYA1
zJd5UKgaw2oKYdPOdQJ16ASi7u9XSfA+rcnk62yRILxnAgMBAAGjggHzMIIB7zAM
BgNVHRMEBTADAQH/MGsGCWCGSAGG+EIBDQReFlxUTFMtTy1NYXRpYyBJbnRlcm1l
ZGlhdGUgQ2VydGlmaWNhdGUg8J+UkCAgLiBUaGlzIGlzIG9uZSBpbiBhIGNoYWlu
IHRoYXQgeW91IGhhdmUgdG8gdmVyaWZ5IDAdBgNVHQ4EFgQU4LuB7UZ53gLMgx+K
lqPnZDiQZdswHwYDVR0jBBgwFoAUxwakMYvUGNc6gJse5HW6EiBjv2owHQYDVR0R
BBYwFIESY2FAdGxzLW8tbWF0aWMuY29tMB0GA1UdEgQWMBSBEmNhQHRscy1vLW1h
dGljLmNvbTBHBglghkgBhvhCAQQEOhY4aHR0cHM6Ly93d3cudGxzLW8tbWF0aWMu
Y29tL3dlLW5ldmVyLXJldm9rZS1oYS1oYS1oYS9jYS8wRAYJYIZIAYb4QgEDBDcW
NWh0dHBzOi8vd3d3LnRscy1vLW1hdGljLmNvbS93ZS1uZXZlci1yZXZva2UtaGEt
aGEtaGEvMDEGCWCGSAGG+EIBBwQkFiJodHRwczovL3d3dy50bHMtby1tYXRpYy5j
b20vcmVuZXcvMDIGCWCGSAGG+EIBCAQlFiNodHRwczovL3d3dy50bHMtby1tYXRp
Yy5jb20vcG9saWN5LzANBgkqhkiG9w0BAQsFAAOCAQEAv2GAnF4F5lCTMF03clSd
pyxOUQsSP0ZIxrWHLlLqbyrV7Ol97NFIrR0+fwNv9hq9N5oHIaQuEodlfJBJCT4J
FoNVMLhtt+NeOV6pbflzGjg7vb6eJb+2McchMED5GTHb9yYaw7x/MHlF9Xu1fcui
IGjBD86GcwU3G0vgZYiFJFX1d58WtTiCDAI9+1dp/Bd8U8Plo+uPwlYEWy5aPDOp
iqU+61+dApA0jU2k7E2NvSR0EtVUR6impSjtSMglFek3n8A3gmG5S/lfbiPrTbK9
TPkQ3+/th6nSIXyvrKFS4xE0/+LkcevkOUbrv59pElSV8KuqW0w8QT5m0VzCfpUm
Vw==
-----END CERTIFICATE-----
