Certificate:
    Data:
        Version: 3 (0x2)
        Serial Number: 4106 (0x100a)
    Signature Algorithm: sha256WithRSAEncryption
        Issuer: O=D&O TLS-O-MATIC CERTIFICATE AUTHORITY AB, CN=tls-o-matic.com
        Validity
            Not Before: Feb 15 09:20:15 2015 GMT
            Not After : Feb 15 09:20:15 2016 GMT
        Subject: O=Rutger TLS valuation services Inc, CN=test3.tls-o-matic.com
        Subject Public Key Info:
            Public Key Algorithm: rsaEncryption
                Public-Key: (2048 bit)
                Modulus:
                    00:b9:47:5b:a4:a3:63:c3:24:11:0b:ee:c2:0d:72:
                    d3:74:6b:66:44:10:42:51:fb:f7:90:a4:33:0e:e9:
                    cd:41:1c:40:f4:53:f0:52:87:48:40:5b:8c:e2:76:
                    cd:4c:4b:83:54:0c:dc:24:cd:b4:e4:9c:48:f9:31:
                    67:4d:10:7b:5a:ae:8e:cd:b8:1b:6c:eb:e7:ff:91:
                    7a:4f:f2:68:67:9b:fa:77:b7:41:ad:31:62:b5:27:
                    bd:98:e1:86:5a:bb:61:f7:95:f6:c6:6b:fd:d9:1c:
                    f9:09:32:32:26:2c:b5:b1:db:38:f2:70:4d:e3:36:
                    55:fc:4e:23:a1:48:39:58:d2:c7:bd:15:2d:80:ba:
                    06:c7:dd:7e:9c:fe:ce:38:9d:a5:b9:f6:40:15:3e:
                    ab:d0:e5:67:18:04:99:54:0d:3f:f6:34:c9:27:4f:
                    08:58:51:e9:e1:9e:79:09:64:d1:1e:05:cc:85:00:
                    ad:fb:f3:4c:3d:4d:55:ba:b9:55:0f:a2:9a:b0:df:
                    47:90:8b:45:ee:2d:8b:e6:6c:2b:84:ee:6a:eb:5c:
                    4f:80:83:e3:a5:53:37:a8:ae:76:98:d1:a9:49:e5:
                    8b:96:f0:8c:02:d2:e3:56:07:fb:3e:a1:ce:f4:67:
                    2a:23:98:74:4c:e8:14:6d:47:47:f0:f2:ab:4d:06:
                    01:55
                Exponent: 65537 (0x10001)
        X509v3 extensions:
            X509v3 Basic Constraints: 
                CA:FALSE
            X509v3 Extended Key Usage: 
                TLS Web Server Authentication
            Netscape Comment: 
                TLS-O-Matic No Validation Certificate 💰 
            X509v3 Subject Key Identifier: 
                57:E9:19:AA:41:6D:4C:66:DB:5D:02:44:1C:A6:EF:90:8B:E8:64:8C
            X509v3 Authority Key Identifier: 
                keyid:1D:6D:58:5B:49:3A:CC:00:2B:22:20:40:42:56:DD:C7:EB:B2:73:45

            X509v3 Subject Alternative Name: 
                DNS:test3.tls-o-matic.null
    Signature Algorithm: sha256WithRSAEncryption
         6d:09:18:6a:e2:5f:a2:fe:2c:ca:e5:16:db:1f:e8:5a:4e:af:
         8b:79:ef:df:c1:31:f6:52:d1:35:5a:14:78:b5:80:64:31:7a:
         d2:24:12:5d:b5:f4:0d:c8:b9:45:58:61:3b:b7:ef:2f:12:8e:
         d2:4c:91:8b:e7:f5:79:bd:04:49:01:12:ff:07:5b:10:b4:2a:
         83:f6:47:a0:e3:84:1b:dd:2c:91:8d:15:10:c2:86:ff:6c:de:
         f5:c3:78:aa:59:c8:27:f4:b6:21:e5:fe:e7:b1:f1:8f:8c:f6:
         96:e3:c3:64:9a:d3:2f:fa:5d:cc:f6:fe:a2:48:b6:95:dd:f9:
         78:16:66:5c:66:15:49:6c:05:2a:59:d3:89:ec:2b:4c:82:b5:
         47:ec:e1:43:49:a0:a1:e2:dc:4a:6b:63:ef:48:9a:33:67:94:
         1b:a5:c4:38:3e:d9:72:fb:99:a4:68:b4:5f:eb:03:1b:a0:c8:
         83:31:94:01:9e:38:b3:79:1b:95:80:70:07:72:06:6d:21:5f:
         9a:c7:85:e0:42:ee:0e:9c:91:52:58:fa:3b:9b:0e:2e:83:1c:
         ca:07:e6:c7:18:35:3a:5d:13:2d:9a:1d:ba:d2:3c:cd:08:ac:
         7a:69:fe:81:8b:72:aa:51:1b:e4:4d:98:49:94:17:45:f3:3b:
         a0:1c:d4:b6
-----BEGIN CERTIFICATE-----
MIID2DCCAsCgAwIBAgICEAowDQYJKoZIhvcNAQELBQAwTTExMC8GA1UEChQoRCZP
IFRMUy1PLU1BVElDIENFUlRJRklDQVRFIEFVVEhPUklUWSBBQjEYMBYGA1UEAxMP
dGxzLW8tbWF0aWMuY29tMB4XDTE1MDIxNTA5MjAxNVoXDTE2MDIxNTA5MjAxNVow
TDEqMCgGA1UECgwhUnV0Z2VyIFRMUyB2YWx1YXRpb24gc2VydmljZXMgSW5jMR4w
HAYDVQQDDBV0ZXN0My50bHMtby1tYXRpYy5jb20wggEiMA0GCSqGSIb3DQEBAQUA
A4IBDwAwggEKAoIBAQC5R1uko2PDJBEL7sINctN0a2ZEEEJR+/eQpDMO6c1BHED0
U/BSh0hAW4zids1MS4NUDNwkzbTknEj5MWdNEHtaro7NuBts6+f/kXpP8mhnm/p3
t0GtMWK1J72Y4YZau2H3lfbGa/3ZHPkJMjImLLWx2zjycE3jNlX8TiOhSDlY0se9
FS2AugbH3X6c/s44naW59kAVPqvQ5WcYBJlUDT/2NMknTwhYUenhnnkJZNEeBcyF
AK3780w9TVW6uVUPopqw30eQi0XuLYvmbCuE7mrrXE+Ag+OlUzeornaY0alJ5YuW
8IwC0uNWB/s+oc70ZyojmHRM6BRtR0fw8qtNBgFVAgMBAAGjgcIwgb8wCQYDVR0T
BAIwADATBgNVHSUEDDAKBggrBgEFBQcDATA6BglghkgBhvhCAQ0ELRYrVExTLU8t
TWF0aWMgTm8gVmFsaWRhdGlvbiBDZXJ0aWZpY2F0ZSDwn5KwIDAdBgNVHQ4EFgQU
V+kZqkFtTGbbXQJEHKbvkIvoZIwwHwYDVR0jBBgwFoAUHW1YW0k6zAArIiBAQlbd
x+uyc0UwIQYDVR0RBBowGIIWdGVzdDMudGxzLW8tbWF0aWMubnVsbDANBgkqhkiG
9w0BAQsFAAOCAQEAbQkYauJfov4syuUW2x/oWk6vi3nv38Ex9lLRNVoUeLWAZDF6
0iQSXbX0Dci5RVhhO7fvLxKO0kyRi+f1eb0ESQES/wdbELQqg/ZHoOOEG90skY0V
EMKG/2ze9cN4qlnIJ/S2IeX+57Hxj4z2luPDZJrTL/pdzPb+oki2ld35eBZmXGYV
SWwFKlnTiewrTIK1R+zhQ0mgoeLcSmtj70iaM2eUG6XEOD7ZcvuZpGi0X+sDG6DI
gzGUAZ44s3kblYBwB3IGbSFfmseF4ELuDpyRUlj6O5sOLoMcygfmxxg1Ol0TLZod
utI8zQisemn+gYtyqlEb5E2YSZQXRfM7oBzUtg==
-----END CERTIFICATE-----
