Certificate:
    Data:
        Version: 3 (0x2)
        Serial Number: 4112 (0x1010)
    Signature Algorithm: sha256WithRSAEncryption
        Issuer: O=D&O TLS-O-MATIC CERTIFICATE AUTHORITY AB, CN=tls-o-matic.com
        Validity
            Not Before: Feb 14 22:00:00 2025 GMT
            Not After : Feb 14 22:01:01 2025 GMT
        Subject: O=Marty's and Doc's Environmentally friendly engines inc, CN=test5.tls-o-matic.com
        Subject Public Key Info:
            Public Key Algorithm: rsaEncryption
                Public-Key: (2048 bit)
                Modulus:
                    00:ce:f5:8e:52:86:3f:24:a3:f5:dd:93:e1:01:c2:
                    c2:62:05:8e:5c:83:d5:34:0c:1f:d8:ba:16:cd:93:
                    0d:06:6e:15:4a:df:97:21:21:25:2e:3a:ac:f2:64:
                    57:46:53:d0:13:3c:1b:c3:33:f3:c7:38:d9:4a:ac:
                    02:00:2d:1d:c8:29:dc:4a:47:f1:b5:62:63:ed:86:
                    cc:26:39:53:e3:11:bf:90:41:1a:e6:c3:dc:d8:87:
                    95:00:ba:74:49:41:e3:24:c9:cb:b9:91:14:d1:8b:
                    0f:b1:57:ac:0e:4a:fb:1f:5e:33:be:61:72:58:08:
                    ec:40:59:8c:f2:3a:bf:e9:d4:02:e2:8a:08:70:af:
                    62:89:94:12:2d:65:32:fe:c5:aa:ad:96:ef:82:08:
                    90:f7:64:37:62:68:e8:1d:ed:fb:fa:cf:d0:9b:ad:
                    b7:4d:9b:bd:b9:f1:49:9b:99:5d:4a:aa:e1:7a:9c:
                    d9:b7:e2:89:85:d3:5e:eb:e3:ee:e8:50:d9:74:0f:
                    f5:fc:fd:da:bd:60:31:76:71:8c:7a:48:b8:10:ec:
                    8d:f2:a6:69:3d:17:af:ce:96:a8:68:62:e2:67:e3:
                    bb:5c:9c:b1:53:14:38:30:07:9d:7c:cd:ed:dc:38:
                    2f:bc:8c:5e:8b:5c:b6:51:86:84:2c:4c:24:c1:6b:
                    07:bf
                Exponent: 65537 (0x10001)
        X509v3 extensions:
            X509v3 Basic Constraints: 
                CA:FALSE
            X509v3 Extended Key Usage: 
                TLS Web Server Authentication
            Netscape Comment: 
                TLS-O-Matic No Validation Certificate 💰 
            X509v3 Subject Key Identifier: 
                9B:E7:2F:3E:84:BA:92:B3:8D:D3:16:3C:8E:E9:07:55:2C:AA:B5:7E
            X509v3 Authority Key Identifier: 
                keyid:1D:6D:58:5B:49:3A:CC:00:2B:22:20:40:42:56:DD:C7:EB:B2:73:45

            X509v3 Subject Alternative Name: 
                DNS:test5.tls-o-matic.com
    Signature Algorithm: sha256WithRSAEncryption
         4a:6b:21:ad:1d:86:e0:c9:bf:2c:e9:df:98:d7:42:29:47:bb:
         fd:54:a6:d0:b8:fb:5c:8f:99:20:b1:5f:24:b4:c7:0c:92:f2:
         27:61:19:43:e6:66:af:4a:86:ae:5b:02:1d:bb:91:52:83:37:
         4f:a1:1c:9f:13:0e:37:44:b4:0e:2d:34:f6:cf:33:9f:09:d1:
         a5:73:6a:5c:48:21:12:bd:8b:d0:49:00:6f:87:55:db:12:05:
         a0:91:a3:7b:21:b5:00:15:6f:30:e2:45:6b:cb:49:ff:17:35:
         15:49:ee:40:d2:40:38:4d:5c:7a:f4:1d:3a:ed:cb:50:8d:51:
         e7:32:7b:b0:c0:da:36:b4:bc:4b:d0:55:43:3a:98:2b:7f:48:
         f7:2c:34:59:42:9b:c7:52:c8:de:c8:de:6c:93:b0:d1:eb:2e:
         63:83:cc:b2:75:f7:f9:3a:6a:34:e8:ff:90:06:7b:c5:e3:23:
         2d:86:cf:2d:fc:08:0b:ad:49:5f:8d:d0:89:44:46:18:77:5b:
         c2:87:81:85:5c:1a:fc:54:00:3e:91:0f:ee:b2:5a:29:c5:d3:
         8b:bf:07:69:7f:4b:65:cd:29:32:d2:1a:67:2e:0d:2d:3c:be:
         7f:86:6f:d1:29:8f:b9:25:06:35:e0:21:67:70:0d:bb:41:3c:
         56:04:c1:59
-----BEGIN CERTIFICATE-----
MIID7DCCAtSgAwIBAgICEBAwDQYJKoZIhvcNAQELBQAwTTExMC8GA1UEChQoRCZP
IFRMUy1PLU1BVElDIENFUlRJRklDQVRFIEFVVEhPUklUWSBBQjEYMBYGA1UEAxMP
dGxzLW8tbWF0aWMuY29tMB4XDTI1MDIxNDIyMDAwMFoXDTI1MDIxNDIyMDEwMVow
YTE/MD0GA1UECgw2TWFydHkncyBhbmQgRG9jJ3MgRW52aXJvbm1lbnRhbGx5IGZy
aWVuZGx5IGVuZ2luZXMgaW5jMR4wHAYDVQQDDBV0ZXN0NS50bHMtby1tYXRpYy5j
b20wggEiMA0GCSqGSIb3DQEBAQUAA4IBDwAwggEKAoIBAQDO9Y5Shj8ko/Xdk+EB
wsJiBY5cg9U0DB/YuhbNkw0GbhVK35chISUuOqzyZFdGU9ATPBvDM/PHONlKrAIA
LR3IKdxKR/G1YmPthswmOVPjEb+QQRrmw9zYh5UAunRJQeMkycu5kRTRiw+xV6wO
SvsfXjO+YXJYCOxAWYzyOr/p1ALiighwr2KJlBItZTL+xaqtlu+CCJD3ZDdiaOgd
7fv6z9CbrbdNm7258UmbmV1KquF6nNm34omF017r4+7oUNl0D/X8/dq9YDF2cYx6
SLgQ7I3ypmk9F6/OlqhoYuJn47tcnLFTFDgwB518ze3cOC+8jF6LXLZRhoQsTCTB
awe/AgMBAAGjgcEwgb4wCQYDVR0TBAIwADATBgNVHSUEDDAKBggrBgEFBQcDATA6
BglghkgBhvhCAQ0ELRYrVExTLU8tTWF0aWMgTm8gVmFsaWRhdGlvbiBDZXJ0aWZp
Y2F0ZSDwn5KwIDAdBgNVHQ4EFgQUm+cvPoS6krON0xY8jukHVSyqtX4wHwYDVR0j
BBgwFoAUHW1YW0k6zAArIiBAQlbdx+uyc0UwIAYDVR0RBBkwF4IVdGVzdDUudGxz
LW8tbWF0aWMuY29tMA0GCSqGSIb3DQEBCwUAA4IBAQBKayGtHYbgyb8s6d+Y10Ip
R7v9VKbQuPtcj5kgsV8ktMcMkvInYRlD5mavSoauWwIdu5FSgzdPoRyfEw43RLQO
LTT2zzOfCdGlc2pcSCESvYvQSQBvh1XbEgWgkaN7IbUAFW8w4kVry0n/FzUVSe5A
0kA4TVx69B067ctQjVHnMnuwwNo2tLxL0FVDOpgrf0j3LDRZQpvHUsjeyN5sk7DR
6y5jg8yydff5Omo06P+QBnvF4yMths8t/AgLrUlfjdCJREYYd1vCh4GFXBr8VAA+
kQ/uslopxdOLvwdpf0tlzSky0hpnLg0tPL5/hm/RKY+5JQY14CFncA27QTxWBMFZ
-----END CERTIFICATE-----
