Certificate:
    Data:
        Version: 3 (0x2)
        Serial Number: 4097 (0x1001)
    Signature Algorithm: sha256WithRSAEncryption
        Issuer: O=D&O TLS-O-MATIC CERTIFICATE AUTHORITY AB, CN=tls-o-matic.com
        Validity
            Not Before: Feb 13 14:04:31 2015 GMT
            Not After : Feb 13 14:04:31 2016 GMT
        Subject: O=Sopgubbarna & Strandbaren Lundeq AB, CN=ignoreme.tls-o-matic.com
        Subject Public Key Info:
            Public Key Algorithm: rsaEncryption
                Public-Key: (2048 bit)
                Modulus:
                    00:ea:b9:22:7f:03:42:30:1f:36:e8:80:10:af:74:
                    19:63:f1:f8:70:be:0d:56:16:ed:75:fe:2f:71:6f:
                    3d:98:d7:3b:da:ee:d2:ce:fc:71:85:85:d4:af:c2:
                    d4:60:87:f1:c3:de:9d:b2:58:50:b7:a7:05:05:9d:
                    6f:54:91:2b:3a:40:b6:4a:67:b3:f9:a6:c9:f6:c1:
                    30:7a:f6:73:15:9f:f9:b3:33:67:e5:16:e1:08:a5:
                    71:32:b2:1f:3f:ba:d3:db:c2:c5:f3:3e:24:33:56:
                    ef:9b:f0:0f:8d:0d:35:0a:ce:91:fb:63:3c:34:64:
                    3f:80:c8:0e:fb:19:0f:25:33:76:80:35:6b:e1:c7:
                    5e:d0:a1:75:78:51:6d:bf:d7:d8:7f:b7:46:6a:81:
                    86:ac:e4:64:f6:e5:d0:5d:17:a9:0c:b1:2d:fc:c0:
                    d1:46:d7:e2:19:bf:20:ab:d6:18:d4:24:22:05:b5:
                    30:4e:28:ed:70:b4:3b:f5:24:24:84:10:c0:6a:66:
                    a2:b3:88:35:96:ad:b1:89:bd:39:34:4e:dd:7a:5a:
                    7d:40:fc:60:bb:a5:c3:f0:a5:bb:12:a2:09:38:99:
                    6d:fd:d7:3c:b4:cd:00:f3:d7:ac:b1:9b:cc:69:56:
                    ee:83:43:96:81:3f:09:71:8c:20:e8:6c:9a:69:24:
                    e9:ed
                Exponent: 65537 (0x10001)
        X509v3 extensions:
            X509v3 Basic Constraints: 
                CA:FALSE
            Netscape Comment: 
                OpenSSL Generated Certificate
            X509v3 Subject Key Identifier: 
                3C:DC:0A:68:C9:53:E1:23:8E:2F:EB:82:34:88:56:AB:33:45:BC:DB
            X509v3 Authority Key Identifier: 
                keyid:1D:6D:58:5B:49:3A:CC:00:2B:22:20:40:42:56:DD:C7:EB:B2:73:45

    Signature Algorithm: sha256WithRSAEncryption
         20:11:51:8d:6a:89:32:60:24:a5:76:5b:8c:89:bc:47:45:ba:
         47:38:ef:bf:e1:06:70:8f:cc:dc:cb:d9:d6:7d:e5:d0:58:71:
         e6:cb:7b:f6:44:5a:4c:a0:8d:b8:be:be:7e:89:3e:c1:4b:fd:
         45:3a:af:95:07:68:d1:00:c9:bf:c1:02:cb:f7:40:f7:b1:e7:
         c5:95:52:fb:f4:02:af:32:57:c1:56:89:4c:36:3a:9b:3f:a3:
         39:15:8d:43:94:23:f6:7f:6c:a6:a9:e1:98:b8:c6:cb:87:d8:
         e5:7c:be:9e:3e:a7:52:5b:67:f8:ae:31:08:a8:ec:7b:35:03:
         04:c1:ae:46:61:df:a5:fe:ea:0b:73:04:c3:c8:2e:a0:42:9f:
         41:6c:01:23:2a:f2:84:32:95:bc:3b:dc:62:8c:27:4a:51:ca:
         3a:ff:cb:da:16:44:7e:e9:67:c6:1c:b4:e9:f6:dc:f7:4b:12:
         e0:0a:af:3a:cf:9c:98:9a:97:dd:85:85:d1:b3:2b:a7:48:98:
         2e:66:b0:72:50:df:e3:f1:46:58:82:8e:9b:fa:84:1e:b9:f0:
         cc:33:50:25:3b:34:6a:ef:80:b8:2b:d5:2b:6f:fd:0d:fe:c3:
         30:ec:82:2a:16:a8:29:ff:2f:cd:b1:d9:3d:b9:14:b1:a1:bc:
         49:5f:3d:ee
-----BEGIN CERTIFICATE-----
MIIDlTCCAn2gAwIBAgICEAEwDQYJKoZIhvcNAQELBQAwTTExMC8GA1UEChQoRCZP
IFRMUy1PLU1BVElDIENFUlRJRklDQVRFIEFVVEhPUklUWSBBQjEYMBYGA1UEAxMP
dGxzLW8tbWF0aWMuY29tMB4XDTE1MDIxMzE0MDQzMVoXDTE2MDIxMzE0MDQzMVow
UTEsMCoGA1UEChQjU29wZ3ViYmFybmEgJiBTdHJhbmRiYXJlbiBMdW5kZXEgQUIx
ITAfBgNVBAMTGGlnbm9yZW1lLnRscy1vLW1hdGljLmNvbTCCASIwDQYJKoZIhvcN
AQEBBQADggEPADCCAQoCggEBAOq5In8DQjAfNuiAEK90GWPx+HC+DVYW7XX+L3Fv
PZjXO9ru0s78cYWF1K/C1GCH8cPenbJYULenBQWdb1SRKzpAtkpns/mmyfbBMHr2
cxWf+bMzZ+UW4QilcTKyHz+609vCxfM+JDNW75vwD40NNQrOkftjPDRkP4DIDvsZ
DyUzdoA1a+HHXtChdXhRbb/X2H+3RmqBhqzkZPbl0F0XqQyxLfzA0UbX4hm/IKvW
GNQkIgW1ME4o7XC0O/UkJIQQwGpmorOINZatsYm9OTRO3XpafUD8YLulw/CluxKi
CTiZbf3XPLTNAPPXrLGbzGlW7oNDloE/CXGMIOhsmmkk6e0CAwEAAaN7MHkwCQYD
VR0TBAIwADAsBglghkgBhvhCAQ0EHxYdT3BlblNTTCBHZW5lcmF0ZWQgQ2VydGlm
aWNhdGUwHQYDVR0OBBYEFDzcCmjJU+Ejji/rgjSIVqszRbzbMB8GA1UdIwQYMBaA
FB1tWFtJOswAKyIgQEJW3cfrsnNFMA0GCSqGSIb3DQEBCwUAA4IBAQAgEVGNaoky
YCSldluMibxHRbpHOO+/4QZwj8zcy9nWfeXQWHHmy3v2RFpMoI24vr5+iT7BS/1F
Oq+VB2jRAMm/wQLL90D3sefFlVL79AKvMlfBVolMNjqbP6M5FY1DlCP2f2ymqeGY
uMbLh9jlfL6ePqdSW2f4rjEIqOx7NQMEwa5GYd+l/uoLcwTDyC6gQp9BbAEjKvKE
MpW8O9xijCdKUco6/8vaFkR+6WfGHLTp9tz3SxLgCq86z5yYmpfdhYXRsyunSJgu
ZrByUN/j8UZYgo6b+oQeufDMM1AlOzRq74C4K9Urb/0N/sMw7IIqFqgp/y/Nsdk9
uRSxobxJXz3u
-----END CERTIFICATE-----
