Certificate:
    Data:
        Version: 3 (0x2)
        Serial Number: 4098 (0x1002)
    Signature Algorithm: sha256WithRSAEncryption
        Issuer: O=D&O TLS-O-MATIC CERTIFICATE AUTHORITY AB, CN=tls-o-matic.com
        Validity
            Not Before: Feb 13 14:11:11 2015 GMT
            Not After : Feb 13 14:11:11 2016 GMT
        Subject: O=Barracuda Sopor & Drinkar AB, CN=ignoreme.tls-o-matic.com
        Subject Public Key Info:
            Public Key Algorithm: rsaEncryption
                Public-Key: (2048 bit)
                Modulus:
                    00:c4:a4:31:34:34:d8:94:92:10:22:27:26:e0:73:
                    1f:03:df:b9:4e:15:f9:e8:91:0e:f3:2a:26:63:65:
                    42:a4:b4:fb:45:11:20:54:05:f3:c5:7e:02:11:34:
                    cb:3e:99:d6:53:27:a6:74:56:3d:ee:b6:d2:37:fa:
                    4a:16:b7:d5:4b:70:b8:59:47:3c:9e:e3:14:b5:9d:
                    b7:69:d5:55:f4:e3:52:3f:15:3e:ec:2d:04:d3:d0:
                    1b:f4:64:65:2a:9f:df:77:1b:57:bd:e2:d4:b9:9a:
                    bd:3d:62:9f:7b:05:a3:71:7f:76:62:6a:ba:b8:3b:
                    5e:6f:30:51:10:ff:21:22:5b:b9:ff:16:53:ac:13:
                    f3:cd:4b:d3:52:04:8d:07:a0:d8:83:ae:5e:1d:4c:
                    be:3c:66:8c:50:c3:dd:e6:90:e5:09:0c:96:af:31:
                    05:04:3c:0f:a6:07:0e:38:65:d1:53:f2:5d:7d:69:
                    15:2e:43:b3:fe:d9:33:0c:b3:f9:4b:91:ab:db:8d:
                    b7:04:2f:90:b2:6d:b0:0f:a7:0a:32:80:d2:32:e8:
                    bc:16:4a:f4:9f:cf:16:93:98:0c:a9:ff:35:80:75:
                    c9:1f:9f:9d:3a:36:3a:0d:b8:97:d8:64:12:0c:6c:
                    0f:aa:3b:7e:5a:4e:e0:dd:07:37:6b:2d:50:a3:7d:
                    c8:f1
                Exponent: 65537 (0x10001)
        X509v3 extensions:
            X509v3 Basic Constraints: 
                CA:FALSE
            Netscape Comment: 
                OpenSSL Generated Certificate
            X509v3 Subject Key Identifier: 
                AD:93:27:97:39:45:B1:99:9F:FF:40:93:93:13:F8:C5:6F:75:97:3F
            X509v3 Authority Key Identifier: 
                keyid:1D:6D:58:5B:49:3A:CC:00:2B:22:20:40:42:56:DD:C7:EB:B2:73:45

    Signature Algorithm: sha256WithRSAEncryption
         22:dd:f5:83:52:74:62:68:16:30:c5:00:96:d4:e9:de:5d:31:
         a1:6a:7d:35:5a:e2:58:19:51:4a:ae:87:aa:ca:98:55:50:00:
         97:f3:fb:2f:f8:3c:26:7f:52:ac:2c:32:0d:7c:0a:8f:62:e3:
         f7:33:60:0f:60:13:73:2f:e9:8e:93:d5:77:cc:b5:51:20:42:
         cf:80:c9:19:a3:f5:c5:dd:11:77:36:9d:a0:04:be:60:77:2b:
         a1:b8:00:d6:65:c5:d3:64:25:f7:9d:99:eb:77:f4:12:01:0c:
         c4:32:9b:9c:33:57:3f:c8:e1:df:7c:c3:c3:b7:3c:a6:64:db:
         f3:bc:d6:6b:b3:48:5a:42:97:0e:1e:bd:6e:04:fc:3c:9a:54:
         f5:0c:a7:ba:f8:64:15:b4:c0:f8:0a:b0:ba:e7:4d:84:b5:e5:
         9d:eb:a8:3a:a6:cb:dc:04:34:e1:47:45:49:09:34:98:a6:ac:
         ca:87:63:c6:d4:ac:42:2b:62:21:ea:91:d2:48:f8:58:49:c3:
         8f:0a:35:55:b8:81:3c:93:56:7b:8d:53:05:01:53:09:d4:c5:
         b4:ef:02:49:0a:af:99:79:e3:e5:b3:8c:e4:a5:da:8f:59:46:
         8b:c2:71:be:c8:c9:6f:65:20:11:81:3f:82:dd:bd:e6:67:89:
         3e:f7:68:b8
-----BEGIN CERTIFICATE-----
MIIDjjCCAnagAwIBAgICEAIwDQYJKoZIhvcNAQELBQAwTTExMC8GA1UEChQoRCZP
IFRMUy1PLU1BVElDIENFUlRJRklDQVRFIEFVVEhPUklUWSBBQjEYMBYGA1UEAxMP
dGxzLW8tbWF0aWMuY29tMB4XDTE1MDIxMzE0MTExMVoXDTE2MDIxMzE0MTExMVow
SjElMCMGA1UEChQcQmFycmFjdWRhIFNvcG9yICYgRHJpbmthciBBQjEhMB8GA1UE
AxMYaWdub3JlbWUudGxzLW8tbWF0aWMuY29tMIIBIjANBgkqhkiG9w0BAQEFAAOC
AQ8AMIIBCgKCAQEAxKQxNDTYlJIQIicm4HMfA9+5ThX56JEO8yomY2VCpLT7RREg
VAXzxX4CETTLPpnWUyemdFY97rbSN/pKFrfVS3C4WUc8nuMUtZ23adVV9ONSPxU+
7C0E09Ab9GRlKp/fdxtXveLUuZq9PWKfewWjcX92Ymq6uDtebzBREP8hIlu5/xZT
rBPzzUvTUgSNB6DYg65eHUy+PGaMUMPd5pDlCQyWrzEFBDwPpgcOOGXRU/JdfWkV
LkOz/tkzDLP5S5Gr2423BC+Qsm2wD6cKMoDSMui8Fkr0n88Wk5gMqf81gHXJH5+d
OjY6DbiX2GQSDGwPqjt+Wk7g3Qc3ay1Qo33I8QIDAQABo3sweTAJBgNVHRMEAjAA
MCwGCWCGSAGG+EIBDQQfFh1PcGVuU1NMIEdlbmVyYXRlZCBDZXJ0aWZpY2F0ZTAd
BgNVHQ4EFgQUrZMnlzlFsZmf/0CTkxP4xW91lz8wHwYDVR0jBBgwFoAUHW1YW0k6
zAArIiBAQlbdx+uyc0UwDQYJKoZIhvcNAQELBQADggEBACLd9YNSdGJoFjDFAJbU
6d5dMaFqfTVa4lgZUUquh6rKmFVQAJfz+y/4PCZ/UqwsMg18Co9i4/czYA9gE3Mv
6Y6T1XfMtVEgQs+AyRmj9cXdEXc2naAEvmB3K6G4ANZlxdNkJfedmet39BIBDMQy
m5wzVz/I4d98w8O3PKZk2/O81muzSFpClw4evW4E/DyaVPUMp7r4ZBW0wPgKsLrn
TYS15Z3rqDqmy9wENOFHRUkJNJimrMqHY8bUrEIrYiHqkdJI+FhJw48KNVW4gTyT
VnuNUwUBUwnUxbTvAkkKr5l54+WzjOSl2o9ZRovCcb7IyW9lIBGBP4LdveZniT73
aLg=
-----END CERTIFICATE-----
