Certificate:
    Data:
        Version: 3 (0x2)
        Serial Number: 4099 (0x1003)
    Signature Algorithm: sha256WithRSAEncryption
        Issuer: O=D&O TLS-O-MATIC CERTIFICATE AUTHORITY AB, CN=tls-o-matic.com
        Validity
            Not Before: Feb 13 14:24:53 2015 GMT
            Not After : Feb 13 14:24:53 2016 GMT
        Subject: O=Barracuda Sopor & Hattar Ekonomisk F\xC3\x96rening, CN=ignoreme.tls-o-matic.com
        Subject Public Key Info:
            Public Key Algorithm: rsaEncryption
                Public-Key: (2048 bit)
                Modulus:
                    00:a8:43:7c:cb:a4:83:5c:94:b5:18:7f:71:8f:a2:
                    23:31:b1:ea:c0:6e:77:92:a6:ad:70:bb:26:75:0c:
                    89:08:22:80:d6:43:c5:8e:64:66:d8:fd:2b:2b:0e:
                    04:b9:49:0e:11:dc:59:84:dc:ff:c4:a9:9a:36:71:
                    cb:b1:60:51:18:59:42:68:f2:1a:86:b0:47:97:15:
                    9e:c6:7c:ca:36:5e:60:cf:1e:4a:7c:45:78:95:5e:
                    76:ee:c8:1b:de:4e:02:b9:bb:99:08:f5:09:bc:52:
                    56:7f:3f:05:b4:8d:f9:ba:37:89:8b:aa:77:ea:f6:
                    9e:6b:97:33:3e:e5:17:96:e0:dd:f5:b3:4c:56:88:
                    ec:16:6a:ca:53:22:7b:82:95:9b:91:16:72:37:14:
                    a2:36:ef:2f:07:95:8d:ae:02:2a:17:7e:d7:66:45:
                    85:c3:3b:41:28:f8:1e:48:6f:a9:31:82:d1:48:f3:
                    ac:d4:09:b7:05:1f:b6:a6:e7:50:6f:dd:44:3c:26:
                    22:07:60:7a:1d:5a:2c:68:2e:f0:cc:43:f1:64:b4:
                    de:17:e6:b8:f0:40:f1:55:8a:16:18:aa:55:e5:d5:
                    65:07:0e:ed:17:83:65:ae:31:96:45:ff:f6:6c:f8:
                    78:c6:1b:17:fc:48:6b:d7:7d:a9:4f:d5:cd:80:67:
                    9c:b3
                Exponent: 65537 (0x10001)
        X509v3 extensions:
            X509v3 Basic Constraints: 
                CA:FALSE
            Netscape Comment: 
                TLS-O-Matic No Validation Certificate
            X509v3 Subject Key Identifier: 
                EA:5B:CF:2A:B2:DF:FB:49:50:DD:49:39:B4:73:80:C1:D8:69:A6:D4
            X509v3 Authority Key Identifier: 
                keyid:1D:6D:58:5B:49:3A:CC:00:2B:22:20:40:42:56:DD:C7:EB:B2:73:45

            X509v3 Subject Alternative Name: 
                DNS:www3.tls-o-matic.com
    Signature Algorithm: sha256WithRSAEncryption
         32:16:cf:7d:76:e2:7e:38:df:11:60:fb:82:5d:e8:a6:7d:15:
         08:99:c0:ef:b3:52:41:8c:ad:a2:a8:6b:aa:3a:45:f6:14:85:
         bc:27:06:33:70:b2:33:70:b7:14:5e:c1:e3:02:03:ae:9e:df:
         2d:25:14:88:32:e8:ab:c7:4d:fe:b4:e6:98:55:ad:78:fe:f0:
         ef:6c:ef:5a:33:e0:5e:03:a3:45:cb:13:73:c7:b5:89:29:4d:
         2c:a7:c5:74:3f:29:97:2c:40:54:63:a7:33:a0:de:ab:f0:f4:
         4a:bd:c2:8e:80:c1:09:84:6f:74:63:15:b8:29:e4:c0:83:1e:
         7e:3a:9c:2f:2c:be:4a:2a:71:2e:50:35:c0:36:5b:6e:42:66:
         31:52:bf:34:88:81:21:b2:35:c8:e3:1a:97:7b:ff:51:1a:dc:
         35:89:3d:37:d8:3b:02:f5:1d:3c:61:3e:7e:3d:ed:f4:79:4e:
         d2:9b:5e:c2:38:2a:f1:37:d9:2b:45:c8:fb:11:9f:fb:2e:ec:
         2e:4f:54:fb:56:7a:1b:6e:a3:d5:9a:76:87:eb:56:ff:22:70:
         7b:a4:64:03:6e:1c:ec:7f:4e:d0:b1:d1:d6:ca:f5:da:e6:22:
         cb:42:5e:85:9d:e2:26:41:61:bd:28:1f:da:37:a9:0f:15:38:
         0a:af:e9:ca
-----BEGIN CERTIFICATE-----
MIIDyTCCArGgAwIBAgICEAMwDQYJKoZIhvcNAQELBQAwTTExMC8GA1UEChQoRCZP
IFRMUy1PLU1BVElDIENFUlRJRklDQVRFIEFVVEhPUklUWSBBQjEYMBYGA1UEAxMP
dGxzLW8tbWF0aWMuY29tMB4XDTE1MDIxMzE0MjQ1M1oXDTE2MDIxMzE0MjQ1M1ow
WjE1MDMGA1UEChQsQmFycmFjdWRhIFNvcG9yICYgSGF0dGFyIEVrb25vbWlzayBG
w5ZyZW5pbmcxITAfBgNVBAMTGGlnbm9yZW1lLnRscy1vLW1hdGljLmNvbTCCASIw
DQYJKoZIhvcNAQEBBQADggEPADCCAQoCggEBAKhDfMukg1yUtRh/cY+iIzGx6sBu
d5KmrXC7JnUMiQgigNZDxY5kZtj9KysOBLlJDhHcWYTc/8SpmjZxy7FgURhZQmjy
GoawR5cVnsZ8yjZeYM8eSnxFeJVedu7IG95OArm7mQj1CbxSVn8/BbSN+bo3iYuq
d+r2nmuXMz7lF5bg3fWzTFaI7BZqylMie4KVm5EWcjcUojbvLweVja4CKhd+12ZF
hcM7QSj4HkhvqTGC0UjzrNQJtwUftqbnUG/dRDwmIgdgeh1aLGgu8MxD8WS03hfm
uPBA8VWKFhiqVeXVZQcO7ReDZa4xlkX/9mz4eMYbF/xIa9d9qU/VzYBnnLMCAwEA
AaOBpTCBojAJBgNVHRMEAjAAMDQGCWCGSAGG+EIBDQQnFiVUTFMtTy1NYXRpYyBO
byBWYWxpZGF0aW9uIENlcnRpZmljYXRlMB0GA1UdDgQWBBTqW88qst/7SVDdSTm0
c4DB2Gmm1DAfBgNVHSMEGDAWgBQdbVhbSTrMACsiIEBCVt3H67JzRTAfBgNVHREE
GDAWghR3d3czLnRscy1vLW1hdGljLmNvbTANBgkqhkiG9w0BAQsFAAOCAQEAMhbP
fXbifjjfEWD7gl3opn0VCJnA77NSQYytoqhrqjpF9hSFvCcGM3CyM3C3FF7B4wID
rp7fLSUUiDLoq8dN/rTmmFWteP7w72zvWjPgXgOjRcsTc8e1iSlNLKfFdD8plyxA
VGOnM6Deq/D0Sr3CjoDBCYRvdGMVuCnkwIMefjqcLyy+SipxLlA1wDZbbkJmMVK/
NIiBIbI1yOMal3v/URrcNYk9N9g7AvUdPGE+fj3t9HlO0ptewjgq8TfZK0XI+xGf
+y7sLk9U+1Z6G26j1Zp2h+tW/yJwe6RkA24c7H9O0LHR1sr12uYiy0JehZ3iJkFh
vSgf2jepDxU4Cq/pyg==
-----END CERTIFICATE-----
