Certificate:
    Data:
        Version: 3 (0x2)
        Serial Number: 4096 (0x1000)
    Signature Algorithm: sha256WithRSAEncryption
        Issuer: O=Your Best Friend Certificates Inc, CN=not-your-friend.co.uk
        Validity
            Not Before: Feb 13 16:50:46 2015 GMT
            Not After : Feb 13 16:50:46 2016 GMT
        Subject: O=Internet Widgits Pty Ltd, CN=sixten.example.com
        Subject Public Key Info:
            Public Key Algorithm: rsaEncryption
                Public-Key: (2048 bit)
                Modulus:
                    00:98:78:d4:66:63:ae:17:a0:9a:0b:7d:fb:2f:24:
                    e4:43:40:3f:4d:d1:f8:1e:cc:21:fc:66:fe:fe:d1:
                    05:81:58:c9:ae:eb:44:fc:18:ad:62:d5:a2:e6:96:
                    80:2e:a4:1a:a0:ed:60:48:a2:ca:55:01:3b:12:88:
                    d3:b3:99:d8:52:8f:0d:20:df:d1:16:3d:a0:dc:10:
                    5a:c8:32:f4:a1:42:d7:e7:67:c1:02:6e:c4:75:40:
                    00:10:b4:a3:88:46:eb:15:96:0c:68:49:eb:79:df:
                    5a:f7:65:6a:51:0e:48:63:92:88:5b:d2:51:2c:92:
                    58:f0:40:c6:a2:22:26:b2:11:d8:5a:53:58:77:c0:
                    b1:ea:47:86:7f:7a:f3:22:d1:a4:73:5b:9c:ed:f5:
                    db:e5:de:85:77:b0:51:59:2c:92:18:a0:54:4e:0f:
                    45:8c:0d:43:c2:21:90:ce:7d:8b:6f:2b:42:e1:19:
                    9d:6d:30:27:c2:49:14:02:66:30:fd:2d:c7:6b:d2:
                    94:f8:22:2b:77:a4:42:f7:5a:62:ed:5a:67:21:10:
                    61:33:e3:03:b7:31:7f:80:09:44:7d:95:c2:00:d6:
                    40:4a:1e:6c:0c:10:92:6e:3c:2f:75:67:a4:9a:2f:
                    44:ea:6a:1a:87:02:db:c6:a0:82:da:37:23:0b:b2:
                    dd:b9
                Exponent: 65537 (0x10001)
        X509v3 extensions:
            X509v3 Basic Constraints: 
                CA:FALSE
            Netscape Comment: 
                TLS-O-Matic No Validation Certificate
            X509v3 Subject Key Identifier: 
                45:C7:94:0C:F4:1F:2F:86:C1:8E:50:ED:6A:20:4F:81:4A:15:B2:AA
            X509v3 Authority Key Identifier: 
                keyid:5A:0B:8D:15:2F:43:2E:B3:93:5A:2D:87:11:28:33:05:62:EA:EB:FA

            X509v3 Subject Alternative Name: 
                DNS:johanna.com
    Signature Algorithm: sha256WithRSAEncryption
         05:d9:e1:1a:5c:dd:ab:14:71:a2:04:70:0e:10:75:5d:a0:98:
         5d:81:23:cc:c1:64:0b:96:d6:e4:9b:e2:ec:b6:31:32:23:4e:
         46:18:66:0d:71:f3:26:6d:0a:92:14:4f:2f:44:aa:e2:c4:4b:
         f6:11:8d:db:f1:c6:38:c9:73:5a:c2:b0:e4:e1:cb:a6:f9:b8:
         e5:3a:03:1c:b9:3a:9a:b2:24:b1:69:b3:4f:32:04:fd:58:28:
         d8:49:ba:d8:27:d0:83:77:e9:ba:f3:48:47:40:9d:a3:ba:14:
         cc:f8:18:aa:44:75:8a:42:aa:6f:f0:27:5b:2c:9c:e3:5c:7c:
         b8:51:b1:9b:82:11:66:9e:be:49:a4:7d:2b:73:18:69:db:c7:
         8e:e3:40:35:76:cd:da:d0:bb:b8:a5:87:0b:89:03:72:bb:1e:
         7c:18:ea:90:c9:12:6d:4f:cf:23:4b:ae:04:2a:ce:56:29:ea:
         75:9d:cd:03:ed:99:72:db:62:c4:59:33:34:95:03:4e:db:6b:
         45:79:ed:08:03:9a:b0:81:2b:52:e8:26:27:54:e1:14:a6:09:
         5b:ce:9b:50:31:bb:87:0f:7d:83:a5:4f:1b:15:8f:37:02:84:
         97:4c:7b:a2:51:64:ce:6a:5e:f3:32:51:18:98:b5:7f:98:2a:
         f3:d0:15:11
-----BEGIN CERTIFICATE-----
MIIDpTCCAo2gAwIBAgICEAAwDQYJKoZIhvcNAQELBQAwTDEqMCgGA1UEChMhWW91
ciBCZXN0IEZyaWVuZCBDZXJ0aWZpY2F0ZXMgSW5jMR4wHAYDVQQDExVub3QteW91
ci1mcmllbmQuY28udWswHhcNMTUwMjEzMTY1MDQ2WhcNMTYwMjEzMTY1MDQ2WjBA
MSEwHwYDVQQKExhJbnRlcm5ldCBXaWRnaXRzIFB0eSBMdGQxGzAZBgNVBAMTEnNp
eHRlbi5leGFtcGxlLmNvbTCCASIwDQYJKoZIhvcNAQEBBQADggEPADCCAQoCggEB
AJh41GZjrhegmgt9+y8k5ENAP03R+B7MIfxm/v7RBYFYya7rRPwYrWLVouaWgC6k
GqDtYEiiylUBOxKI07OZ2FKPDSDf0RY9oNwQWsgy9KFC1+dnwQJuxHVAABC0o4hG
6xWWDGhJ63nfWvdlalEOSGOSiFvSUSySWPBAxqIiJrIR2FpTWHfAsepHhn968yLR
pHNbnO312+XehXewUVkskhigVE4PRYwNQ8IhkM59i28rQuEZnW0wJ8JJFAJmMP0t
x2vSlPgiK3ekQvdaYu1aZyEQYTPjA7cxf4AJRH2VwgDWQEoebAwQkm48L3VnpJov
ROpqGocC28aggto3Iwuy3bkCAwEAAaOBnDCBmTAJBgNVHRMEAjAAMDQGCWCGSAGG
+EIBDQQnFiVUTFMtTy1NYXRpYyBObyBWYWxpZGF0aW9uIENlcnRpZmljYXRlMB0G
A1UdDgQWBBRFx5QM9B8vhsGOUO1qIE+BShWyqjAfBgNVHSMEGDAWgBRaC40VL0Mu
s5NaLYcRKDMFYurr+jAWBgNVHREEDzANggtqb2hhbm5hLmNvbTANBgkqhkiG9w0B
AQsFAAOCAQEABdnhGlzdqxRxogRwDhB1XaCYXYEjzMFkC5bW5Jvi7LYxMiNORhhm
DXHzJm0KkhRPL0Sq4sRL9hGN2/HGOMlzWsKw5OHLpvm45ToDHLk6mrIksWmzTzIE
/Vgo2Em62CfQg3fpuvNIR0Cdo7oUzPgYqkR1ikKqb/AnWyyc41x8uFGxm4IRZp6+
SaR9K3MYadvHjuNANXbN2tC7uKWHC4kDcrsefBjqkMkSbU/PI0uuBCrOVinqdZ3N
A+2ZcttixFkzNJUDTttrRXntCAOasIErUugmJ1ThFKYJW86bUDG7hw99g6VPGxWP
NwKEl0x7olFkzmpe8zJRGJi1f5gq89AVEQ==
-----END CERTIFICATE-----
