Certificate:
    Data:
        Version: 3 (0x2)
        Serial Number: 4115 (0x1013)
    Signature Algorithm: sha256WithRSAEncryption
        Issuer: O=TLS-O-Matic intermediate Super CA, CN=TLS-section-42
        Validity
            Not Before: Feb 15 14:46:16 2015 GMT
            Not After : Feb 15 14:46:16 2016 GMT
        Subject: O=The TLS University, CN=test10.tls-o-matic.com
        Subject Public Key Info:
            Public Key Algorithm: rsaEncryption
                Public-Key: (2048 bit)
                Modulus:
                    00:c1:f2:88:bb:a7:f0:d3:9b:ef:8a:98:ed:57:db:
                    7d:24:72:07:43:2b:27:79:d4:b0:0d:3e:07:95:a3:
                    38:cf:c8:9a:35:ee:39:1c:85:87:e9:a5:60:34:14:
                    34:91:f5:4b:c5:c1:74:d8:09:4f:13:58:4a:76:02:
                    c9:6d:b5:83:c5:41:a7:83:87:82:c9:fc:97:47:cf:
                    65:2f:f6:ac:8e:a9:be:68:20:56:d6:8f:58:fa:3d:
                    5a:1f:05:12:53:ad:41:a5:9e:b0:d5:82:f5:de:c8:
                    5d:2f:c4:48:cf:95:56:59:37:af:cd:53:08:4b:ec:
                    fb:31:d7:2c:fb:b0:97:76:df:e4:e4:20:c3:b7:10:
                    db:17:70:85:0b:f9:32:9e:de:15:16:da:8a:61:a4:
                    9c:f1:b3:98:74:89:b6:41:34:75:f9:10:cb:1f:fe:
                    d3:44:95:a7:86:10:86:04:d5:00:74:04:fc:17:b9:
                    16:db:1b:c4:ab:1d:73:b5:b7:28:ed:02:09:ba:35:
                    3b:67:e8:24:b8:0e:4b:9b:38:79:44:0a:71:75:59:
                    4e:77:72:63:76:0a:45:b6:b6:84:3f:c6:da:cc:f0:
                    d4:00:bd:3c:14:1a:72:c1:f2:71:37:a5:30:7b:17:
                    50:38:c6:13:2a:97:3c:3f:1d:e9:a4:d6:18:45:b3:
                    a2:09
                Exponent: 65537 (0x10001)
        X509v3 extensions:
            X509v3 Basic Constraints: 
                CA:FALSE
            X509v3 Extended Key Usage: 
                TLS Web Server Authentication
            Netscape Comment: 
                TLS-O-Matic No Validation Certificate 💰 
            X509v3 Subject Key Identifier: 
                E1:BC:56:AE:92:4A:DF:BE:0D:4F:88:FB:3A:88:6B:DE:1A:EF:CE:7B
            X509v3 Authority Key Identifier: 
                keyid:3F:8A:9A:66:F4:31:A3:14:09:3A:3F:4D:CA:ED:DD:E3:73:88:45:51

            X509v3 Subject Alternative Name: 
                DNS:tls-o-matic.com
    Signature Algorithm: sha256WithRSAEncryption
         a0:35:3b:17:aa:40:20:ea:46:1b:47:cc:24:2a:ab:df:36:42:
         21:ef:33:7a:37:fe:5d:78:75:de:7f:a8:94:99:fb:4a:c0:00:
         9e:1e:38:37:fa:54:df:91:94:e2:7a:43:e9:f4:56:26:ab:da:
         6b:ed:b4:94:12:71:69:3c:3f:48:73:d5:e2:7a:cd:7f:74:f2:
         08:02:a1:7f:66:ea:72:f7:c1:5f:26:c4:65:ab:62:bf:5f:eb:
         4b:62:47:19:61:55:19:28:70:fc:02:9d:91:0e:e0:5d:a0:0e:
         1a:f8:a0:fb:62:3d:77:eb:1d:ad:0d:b6:bc:e4:ea:89:87:f3:
         4a:6e:9b:13:7b:24:a0:3d:2b:63:d3:74:5d:08:53:c8:c5:4c:
         65:bd:55:0d:a2:c8:1f:b4:06:82:c1:92:fd:25:ec:99:8e:8f:
         4b:8b:20:47:ff:e5:29:7d:dd:62:1b:5b:aa:6d:2a:38:cb:38:
         f6:3b:12:9d:d3:60:dc:bd:de:67:ed:f8:1c:65:23:43:62:37:
         6a:71:84:fd:41:93:e6:77:db:d2:7e:20:07:f8:87:ec:0d:d3:
         b6:93:09:cf:e1:f6:0a:0d:94:6a:05:52:66:d7:06:96:3c:b7:
         fb:b0:49:e6:2f:fb:e0:57:c5:42:07:65:d6:9b:08:be:b8:9b:
         ba:6b:6a:ab
-----BEGIN CERTIFICATE-----
MIIDuzCCAqOgAwIBAgICEBMwDQYJKoZIhvcNAQELBQAwRTEqMCgGA1UECgwhVExT
LU8tTWF0aWMgaW50ZXJtZWRpYXRlIFN1cGVyIENBMRcwFQYDVQQDDA5UTFMtc2Vj
dGlvbi00MjAeFw0xNTAyMTUxNDQ2MTZaFw0xNjAyMTUxNDQ2MTZaMD4xGzAZBgNV
BAoMElRoZSBUTFMgVW5pdmVyc2l0eTEfMB0GA1UEAwwWdGVzdDEwLnRscy1vLW1h
dGljLmNvbTCCASIwDQYJKoZIhvcNAQEBBQADggEPADCCAQoCggEBAMHyiLun8NOb
74qY7VfbfSRyB0MrJ3nUsA0+B5WjOM/ImjXuORyFh+mlYDQUNJH1S8XBdNgJTxNY
SnYCyW21g8VBp4OHgsn8l0fPZS/2rI6pvmggVtaPWPo9Wh8FElOtQaWesNWC9d7I
XS/ESM+VVlk3r81TCEvs+zHXLPuwl3bf5OQgw7cQ2xdwhQv5Mp7eFRbaimGknPGz
mHSJtkE0dfkQyx/+00SVp4YQhgTVAHQE/Be5FtsbxKsdc7W3KO0CCbo1O2foJLgO
S5s4eUQKcXVZTndyY3YKRba2hD/G2szw1AC9PBQacsHycTelMHsXUDjGEyqXPD8d
6aTWGEWzogkCAwEAAaOBuzCBuDAJBgNVHRMEAjAAMBMGA1UdJQQMMAoGCCsGAQUF
BwMBMDoGCWCGSAGG+EIBDQQtFitUTFMtTy1NYXRpYyBObyBWYWxpZGF0aW9uIENl
cnRpZmljYXRlIPCfkrAgMB0GA1UdDgQWBBThvFaukkrfvg1PiPs6iGveGu/OezAf
BgNVHSMEGDAWgBQ/ippm9DGjFAk6P03K7d3jc4hFUTAaBgNVHREEEzARgg90bHMt
by1tYXRpYy5jb20wDQYJKoZIhvcNAQELBQADggEBAKA1OxeqQCDqRhtHzCQqq982
QiHvM3o3/l14dd5/qJSZ+0rAAJ4eODf6VN+RlOJ6Q+n0Viar2mvttJQScWk8P0hz
1eJ6zX908ggCoX9m6nL3wV8mxGWrYr9f60tiRxlhVRkocPwCnZEO4F2gDhr4oPti
PXfrHa0Ntrzk6omH80pumxN7JKA9K2PTdF0IU8jFTGW9VQ2iyB+0BoLBkv0l7JmO
j0uLIEf/5Sl93WIbW6ptKjjLOPY7Ep3TYNy93mft+BxlI0NiN2pxhP1Bk+Z329J+
IAf4h+wN07aTCc/h9goNlGoFUmbXBpY8t/uwSeYv++BXxUIHZdabCL64m7praqs=
-----END CERTIFICATE-----
