Certificate:
    Data:
        Version: 3 (0x2)
        Serial Number: 4120 (0x1018)
    Signature Algorithm: sha256WithRSAEncryption
        Issuer: O=D&O TLS-O-MATIC CERTIFICATE AUTHORITY AB, CN=tls-o-matic.com
        Validity
            Not Before: Feb 15 16:10:24 2015 GMT
            Not After : Feb 15 16:10:24 2016 GMT
        Subject: O=TLS-O-Matic Intermediate CA 1, CN=TLS-o-matic-intermediate-1
        Subject Public Key Info:
            Public Key Algorithm: rsaEncryption
                Public-Key: (2048 bit)
                Modulus:
                    00:c3:96:42:85:8a:7c:02:90:13:92:53:fd:4a:5f:
                    c4:0a:f6:3a:bf:90:1e:a7:cd:3b:49:ab:28:fa:1a:
                    2d:95:c4:dd:4b:5e:cd:6b:f8:84:7d:72:fb:d4:d6:
                    85:be:c1:e4:67:d8:b0:f5:9a:d5:7a:8b:6b:8c:79:
                    c1:4c:86:f4:59:d7:88:e5:64:35:56:c4:23:59:5f:
                    14:28:7b:45:b0:cb:22:5c:77:e7:8c:0a:99:7b:69:
                    7f:41:7c:b4:45:c6:fd:1f:27:9d:56:3a:bf:e2:01:
                    12:05:b1:ac:bb:b0:3d:e5:f5:28:ab:08:0f:d8:4b:
                    cf:4f:c6:63:3a:55:ee:01:99:b2:6d:68:8f:ad:7b:
                    81:e5:ef:8b:ed:04:da:5f:22:29:23:30:8c:f0:b4:
                    e6:d2:02:ec:3d:44:fc:6d:2a:87:aa:75:f4:38:0a:
                    8b:b9:f3:6f:ab:d6:b3:78:79:19:8d:01:3c:cd:b6:
                    d9:3e:37:b8:40:3e:0d:ce:8c:38:53:3f:e1:e9:dc:
                    80:de:f2:12:a9:97:d0:45:6c:06:a6:d4:a9:17:be:
                    ff:8a:e0:fa:02:be:71:c9:2c:98:7a:86:2a:97:0d:
                    62:c1:5a:0c:51:72:f9:46:8e:17:d8:ac:43:0d:30:
                    d4:8b:39:e0:83:a8:9e:4c:77:ee:52:77:ab:5e:86:
                    f6:df
                Exponent: 65537 (0x10001)
        X509v3 extensions:
            X509v3 Basic Constraints: 
                CA:TRUE
            Netscape Comment: 
                TLS-O-Matic Intermediate Certificate 🔐  . This is one in a chain that you have to verify 
            X509v3 Subject Key Identifier: 
                3C:8D:0C:2C:72:26:28:A0:65:30:77:82:9E:A9:A3:A7:E9:24:F2:B5
            X509v3 Authority Key Identifier: 
                keyid:1D:6D:58:5B:49:3A:CC:00:2B:22:20:40:42:56:DD:C7:EB:B2:73:45

            X509v3 Subject Alternative Name: 
                email:ca@tls-o-matic.com
            X509v3 Issuer Alternative Name: 
                <EMPTY>

            Netscape CA Revocation Url: 
                https://www.tls-o-matic.com/we-never-revoke-ha-ha-ha/ca/
            Netscape Revocation Url: 
                https://www.tls-o-matic.com/we-never-revoke-ha-ha-ha/
            Netscape Renewal Url: 
                https://www.tls-o-matic.com/renew/
            Netscape CA Policy Url: 
                https://www.tls-o-matic.com/policy/
    Signature Algorithm: sha256WithRSAEncryption
         c1:64:0e:c9:e0:7e:cb:8e:e0:b4:e5:8b:d9:36:fc:70:05:1f:
         b7:0e:96:41:1b:fd:fc:93:e5:16:dc:20:ef:17:97:f8:4a:16:
         c2:b1:3c:d1:8f:c5:b8:59:ea:51:ec:36:1f:26:5d:24:ff:74:
         fc:41:16:a2:ee:20:2b:f4:ae:46:28:5c:1e:59:2c:b5:ac:ff:
         80:91:f5:00:50:37:56:f7:58:07:4f:0e:94:e0:7f:1c:b1:29:
         af:dd:d9:4b:0a:87:5e:fa:20:31:2d:b7:30:90:70:de:de:fb:
         07:07:14:49:0f:be:13:51:56:4b:37:1b:32:e9:83:20:74:e6:
         ec:f7:75:a9:08:c4:12:fc:de:1e:14:f9:c0:8a:9f:e1:22:d9:
         3b:eb:38:58:4d:4b:cb:be:7f:79:e9:3e:5f:19:d6:51:2c:14:
         18:6c:b6:36:3a:b9:0b:61:e8:06:c7:3b:4e:e9:d8:3c:15:ff:
         71:3f:74:a8:fe:ba:9f:03:38:3d:ab:9d:f2:b9:92:67:ce:ab:
         67:fb:f4:29:97:f2:91:92:f1:33:3f:27:38:e1:cc:10:38:cb:
         da:c4:cf:00:d1:b6:70:41:e6:83:9e:f8:34:f6:69:36:a6:0d:
         be:9d:fe:a8:d6:87:03:13:40:05:68:e5:89:6e:4b:d2:1c:84:
         5e:0d:65:89
-----BEGIN CERTIFICATE-----
MIIE9zCCA9+gAwIBAgICEBgwDQYJKoZIhvcNAQELBQAwTTExMC8GA1UEChQoRCZP
IFRMUy1PLU1BVElDIENFUlRJRklDQVRFIEFVVEhPUklUWSBBQjEYMBYGA1UEAxMP
dGxzLW8tbWF0aWMuY29tMB4XDTE1MDIxNTE2MTAyNFoXDTE2MDIxNTE2MTAyNFow
TTEmMCQGA1UECgwdVExTLU8tTWF0aWMgSW50ZXJtZWRpYXRlIENBIDExIzAhBgNV
BAMMGlRMUy1vLW1hdGljLWludGVybWVkaWF0ZS0xMIIBIjANBgkqhkiG9w0BAQEF
AAOCAQ8AMIIBCgKCAQEAw5ZChYp8ApATklP9Sl/ECvY6v5Aep807Saso+hotlcTd
S17Na/iEfXL71NaFvsHkZ9iw9ZrVeotrjHnBTIb0WdeI5WQ1VsQjWV8UKHtFsMsi
XHfnjAqZe2l/QXy0Rcb9HyedVjq/4gESBbGsu7A95fUoqwgP2EvPT8ZjOlXuAZmy
bWiPrXuB5e+L7QTaXyIpIzCM8LTm0gLsPUT8bSqHqnX0OAqLufNvq9azeHkZjQE8
zbbZPje4QD4Nzow4Uz/h6dyA3vISqZfQRWwGptSpF77/iuD6Ar5xySyYeoYqlw1i
wVoMUXL5Ro4X2KxDDTDUizngg6ieTHfuUnerXob23wIDAQABo4IB3zCCAdswDAYD
VR0TBAUwAwEB/zBrBglghkgBhvhCAQ0EXhZcVExTLU8tTWF0aWMgSW50ZXJtZWRp
YXRlIENlcnRpZmljYXRlIPCflJAgIC4gVGhpcyBpcyBvbmUgaW4gYSBjaGFpbiB0
aGF0IHlvdSBoYXZlIHRvIHZlcmlmeSAwHQYDVR0OBBYEFDyNDCxyJiigZTB3gp6p
o6fpJPK1MB8GA1UdIwQYMBaAFB1tWFtJOswAKyIgQEJW3cfrsnNFMB0GA1UdEQQW
MBSBEmNhQHRscy1vLW1hdGljLmNvbTAJBgNVHRIEAjAAMEcGCWCGSAGG+EIBBAQ6
FjhodHRwczovL3d3dy50bHMtby1tYXRpYy5jb20vd2UtbmV2ZXItcmV2b2tlLWhh
LWhhLWhhL2NhLzBEBglghkgBhvhCAQMENxY1aHR0cHM6Ly93d3cudGxzLW8tbWF0
aWMuY29tL3dlLW5ldmVyLXJldm9rZS1oYS1oYS1oYS8wMQYJYIZIAYb4QgEHBCQW
Imh0dHBzOi8vd3d3LnRscy1vLW1hdGljLmNvbS9yZW5ldy8wMgYJYIZIAYb4QgEI
BCUWI2h0dHBzOi8vd3d3LnRscy1vLW1hdGljLmNvbS9wb2xpY3kvMA0GCSqGSIb3
DQEBCwUAA4IBAQDBZA7J4H7LjuC05YvZNvxwBR+3DpZBG/38k+UW3CDvF5f4ShbC
sTzRj8W4WepR7DYfJl0k/3T8QRai7iAr9K5GKFweWSy1rP+AkfUAUDdW91gHTw6U
4H8csSmv3dlLCode+iAxLbcwkHDe3vsHBxRJD74TUVZLNxsy6YMgdObs93WpCMQS
/N4eFPnAip/hItk76zhYTUvLvn956T5fGdZRLBQYbLY2OrkLYegGxztO6dg8Ff9x
P3So/rqfAzg9q53yuZJnzqtn+/Qpl/KRkvEzPyc44cwQOMvaxM8A0bZwQeaDnvg0
9mk2pg2+nf6o1ocDE0AFaOWJbkvSHIReDWWJ
-----END CERTIFICATE-----
Certificate:
    Data:
        Version: 3 (0x2)
        Serial Number: 4121 (0x1019)
    Signature Algorithm: sha256WithRSAEncryption
        Issuer: O=TLS-O-Matic Intermediate CA 1, CN=TLS-o-matic-intermediate-1
        Validity
            Not Before: Feb 15 16:10:31 2015 GMT
            Not After : Feb 15 16:10:31 2016 GMT
        Subject: O=TLS-O-Matic Intermediate CA 2, CN=TLS-o-matic-intermediate-2
        Subject Public Key Info:
            Public Key Algorithm: rsaEncryption
                Public-Key: (2048 bit)
                Modulus:
                    00:c0:d4:e3:7f:98:f2:48:32:ff:01:e5:1b:d2:5f:
                    4e:f3:16:36:17:a5:26:cb:6e:72:16:bd:07:50:31:
                    7e:9d:7d:5f:51:22:ff:c3:14:53:b1:15:38:40:52:
                    25:da:12:e8:8c:57:16:4f:f8:d4:af:f6:72:01:dd:
                    f2:eb:cb:90:29:39:59:88:97:bc:c3:c4:0f:fb:93:
                    63:86:9c:41:bf:f7:cc:99:1d:6c:45:67:e0:cf:d5:
                    8d:1d:e4:a3:c9:7f:5f:0c:af:1d:e8:cc:b5:31:a4:
                    c0:97:34:f6:cc:e3:e2:fd:67:25:7c:30:e2:bb:79:
                    3e:61:4d:03:0d:78:8c:a7:a5:52:ce:ca:ef:61:f7:
                    54:3a:10:3f:f3:4e:7e:c2:17:8a:77:93:71:1e:13:
                    19:88:6e:b9:ba:77:e2:23:41:00:69:5c:66:d3:58:
                    eb:22:64:cf:32:26:60:cf:2e:93:8f:c5:5a:e4:51:
                    b6:a9:6b:b9:06:33:10:b4:ae:b7:98:e1:a0:c2:12:
                    51:31:6b:90:d6:a4:56:4c:08:9f:5f:ad:17:eb:b2:
                    fe:6f:96:07:99:bf:10:2f:c7:1d:30:8d:c7:7a:0f:
                    c3:ca:5d:8e:48:40:94:d2:56:14:18:0f:77:44:ee:
                    9b:1a:63:60:e5:8b:c7:82:76:78:54:4e:98:8c:ed:
                    dd:29
                Exponent: 65537 (0x10001)
        X509v3 extensions:
            X509v3 Basic Constraints: 
                CA:TRUE
            Netscape Comment: 
                TLS-O-Matic Intermediate Certificate 🔐  . This is one in a chain that you have to verify 
            X509v3 Subject Key Identifier: 
                D9:4D:1D:CD:7F:AC:20:B1:DD:F1:74:CA:7C:06:F4:9D:5C:05:A1:0A
            X509v3 Authority Key Identifier: 
                keyid:3C:8D:0C:2C:72:26:28:A0:65:30:77:82:9E:A9:A3:A7:E9:24:F2:B5

            X509v3 Subject Alternative Name: 
                email:ca@tls-o-matic.com
            X509v3 Issuer Alternative Name: 
                email:ca@tls-o-matic.com
            Netscape CA Revocation Url: 
                https://www.tls-o-matic.com/we-never-revoke-ha-ha-ha/ca/
            Netscape Revocation Url: 
                https://www.tls-o-matic.com/we-never-revoke-ha-ha-ha/
            Netscape Renewal Url: 
                https://www.tls-o-matic.com/renew/
            Netscape CA Policy Url: 
                https://www.tls-o-matic.com/policy/
    Signature Algorithm: sha256WithRSAEncryption
         16:5c:36:3f:37:0f:4e:9d:87:a2:a0:6c:e0:c6:c4:1c:e6:4b:
         75:67:fe:9a:58:12:b8:a4:37:34:67:14:be:cf:69:01:eb:e8:
         9f:76:32:b9:8e:04:d1:ce:2b:66:4a:5b:8a:92:ab:37:64:2b:
         ec:95:b5:1e:ae:f8:7c:15:00:dd:2d:0e:b3:5e:81:c6:9f:78:
         f6:d0:80:67:fa:a6:7b:8c:40:e5:da:02:94:eb:23:27:24:8c:
         e9:dd:58:87:b6:c7:93:c6:c2:a7:8c:00:17:be:7d:12:11:68:
         12:c9:5a:61:53:b4:69:be:6c:9c:9c:d8:20:bd:f6:b4:b7:91:
         6c:0c:e4:10:93:f7:89:44:c9:43:02:78:ae:d0:dd:be:d0:48:
         7d:0a:6e:af:0b:38:12:20:e5:98:d7:02:ae:9f:f3:86:6e:0f:
         2b:f4:86:19:89:81:bc:e6:4d:5a:bb:46:16:c8:fc:89:15:2a:
         b1:6d:d3:f1:df:8f:b8:4e:f3:f9:e5:aa:02:50:9f:20:50:55:
         74:b6:1b:90:a2:f3:5b:5d:bb:11:a7:95:3d:12:99:08:9d:31:
         95:12:65:8b:db:79:b6:01:34:aa:fd:8f:22:54:90:cc:bd:20:
         92:38:2c:77:0d:a7:ca:5b:3c:7c:a8:68:2d:e2:5d:b6:dd:56:
         2c:22:74:b9
-----BEGIN CERTIFICATE-----
MIIFCzCCA/OgAwIBAgICEBkwDQYJKoZIhvcNAQELBQAwTTEmMCQGA1UECgwdVExT
LU8tTWF0aWMgSW50ZXJtZWRpYXRlIENBIDExIzAhBgNVBAMMGlRMUy1vLW1hdGlj
LWludGVybWVkaWF0ZS0xMB4XDTE1MDIxNTE2MTAzMVoXDTE2MDIxNTE2MTAzMVow
TTEmMCQGA1UECgwdVExTLU8tTWF0aWMgSW50ZXJtZWRpYXRlIENBIDIxIzAhBgNV
BAMMGlRMUy1vLW1hdGljLWludGVybWVkaWF0ZS0yMIIBIjANBgkqhkiG9w0BAQEF
AAOCAQ8AMIIBCgKCAQEAwNTjf5jySDL/AeUb0l9O8xY2F6Umy25yFr0HUDF+nX1f
USL/wxRTsRU4QFIl2hLojFcWT/jUr/ZyAd3y68uQKTlZiJe8w8QP+5NjhpxBv/fM
mR1sRWfgz9WNHeSjyX9fDK8d6My1MaTAlzT2zOPi/WclfDDiu3k+YU0DDXiMp6VS
zsrvYfdUOhA/805+wheKd5NxHhMZiG65unfiI0EAaVxm01jrImTPMiZgzy6Tj8Va
5FG2qWu5BjMQtK63mOGgwhJRMWuQ1qRWTAifX60X67L+b5YHmb8QL8cdMI3Heg/D
yl2OSECU0lYUGA93RO6bGmNg5YvHgnZ4VE6YjO3dKQIDAQABo4IB8zCCAe8wDAYD
VR0TBAUwAwEB/zBrBglghkgBhvhCAQ0EXhZcVExTLU8tTWF0aWMgSW50ZXJtZWRp
YXRlIENlcnRpZmljYXRlIPCflJAgIC4gVGhpcyBpcyBvbmUgaW4gYSBjaGFpbiB0
aGF0IHlvdSBoYXZlIHRvIHZlcmlmeSAwHQYDVR0OBBYEFNlNHc1/rCCx3fF0ynwG
9J1cBaEKMB8GA1UdIwQYMBaAFDyNDCxyJiigZTB3gp6po6fpJPK1MB0GA1UdEQQW
MBSBEmNhQHRscy1vLW1hdGljLmNvbTAdBgNVHRIEFjAUgRJjYUB0bHMtby1tYXRp
Yy5jb20wRwYJYIZIAYb4QgEEBDoWOGh0dHBzOi8vd3d3LnRscy1vLW1hdGljLmNv
bS93ZS1uZXZlci1yZXZva2UtaGEtaGEtaGEvY2EvMEQGCWCGSAGG+EIBAwQ3FjVo
dHRwczovL3d3dy50bHMtby1tYXRpYy5jb20vd2UtbmV2ZXItcmV2b2tlLWhhLWhh
LWhhLzAxBglghkgBhvhCAQcEJBYiaHR0cHM6Ly93d3cudGxzLW8tbWF0aWMuY29t
L3JlbmV3LzAyBglghkgBhvhCAQgEJRYjaHR0cHM6Ly93d3cudGxzLW8tbWF0aWMu
Y29tL3BvbGljeS8wDQYJKoZIhvcNAQELBQADggEBABZcNj83D06dh6KgbODGxBzm
S3Vn/ppYErikNzRnFL7PaQHr6J92MrmOBNHOK2ZKW4qSqzdkK+yVtR6u+HwVAN0t
DrNegcafePbQgGf6pnuMQOXaApTrIyckjOndWIe2x5PGwqeMABe+fRIRaBLJWmFT
tGm+bJyc2CC99rS3kWwM5BCT94lEyUMCeK7Q3b7QSH0Kbq8LOBIg5ZjXAq6f84Zu
Dyv0hhmJgbzmTVq7RhbI/IkVKrFt0/Hfj7hO8/nlqgJQnyBQVXS2G5Ci81tduxGn
lT0SmQidMZUSZYvbebYBNKr9jyJUkMy9IJI4LHcNp8pbPHyoaC3iXbbdViwidLk=
-----END CERTIFICATE-----
Certificate:
    Data:
        Version: 3 (0x2)
        Serial Number: 4122 (0x101a)
    Signature Algorithm: sha256WithRSAEncryption
        Issuer: O=TLS-O-Matic Intermediate CA 2, CN=TLS-o-matic-intermediate-2
        Validity
            Not Before: Feb 15 16:10:40 2015 GMT
            Not After : Feb 15 16:10:40 2016 GMT
        Subject: O=TLS-O-Matic Intermediate CA 3, CN=TLS-o-matic-intermediate-3
        Subject Public Key Info:
            Public Key Algorithm: rsaEncryption
                Public-Key: (2048 bit)
                Modulus:
                    00:b2:ce:44:00:d6:ff:10:d6:0d:7d:0f:e5:cd:0e:
                    84:d4:5e:68:51:b8:7d:7b:04:d5:e0:5b:04:41:b4:
                    07:7b:6b:71:64:7a:9c:d7:a4:7c:91:87:27:bc:25:
                    e9:12:43:01:5e:07:b3:90:8d:90:87:89:c9:1a:53:
                    01:26:97:4a:cd:9d:e4:1c:92:d2:0b:2b:0e:d5:f8:
                    d5:3d:47:d2:32:0a:e2:b7:26:d2:9b:97:ff:2c:33:
                    69:0e:f7:13:c5:d1:8b:a8:58:06:fd:a3:53:3b:15:
                    48:aa:c0:8f:ff:b7:99:a6:be:ba:ac:a7:1c:96:83:
                    55:e7:36:0f:3f:63:33:ec:2a:70:15:db:66:07:a4:
                    c9:6e:3b:53:5b:b6:55:c8:34:17:92:a0:49:54:97:
                    5c:5a:ee:4e:e6:83:82:38:9b:c1:fa:47:f8:cc:89:
                    f2:e8:06:37:5e:a3:18:13:11:bb:dc:8e:11:b8:22:
                    f1:a7:c8:a2:62:4a:4b:00:7f:c5:be:2f:f3:1f:7f:
                    2b:10:a1:0e:f0:12:9f:40:1d:45:d1:0f:57:7e:52:
                    ec:5f:79:85:9e:2e:ae:95:ef:fb:17:4b:df:2f:ae:
                    dd:92:b8:07:27:f7:5e:63:70:ee:33:bd:f5:81:36:
                    73:dd:2a:5f:a3:17:fd:71:01:be:eb:e4:74:9b:67:
                    b9:bf
                Exponent: 65537 (0x10001)
        X509v3 extensions:
            X509v3 Basic Constraints: 
                CA:TRUE
            Netscape Comment: 
                TLS-O-Matic Intermediate Certificate 🔐  . This is one in a chain that you have to verify 
            X509v3 Subject Key Identifier: 
                EC:46:37:BC:73:08:7D:52:78:BC:BB:23:57:F9:94:F0:5F:B6:63:52
            X509v3 Authority Key Identifier: 
                keyid:D9:4D:1D:CD:7F:AC:20:B1:DD:F1:74:CA:7C:06:F4:9D:5C:05:A1:0A

            X509v3 Subject Alternative Name: 
                email:ca@tls-o-matic.com
            X509v3 Issuer Alternative Name: 
                email:ca@tls-o-matic.com
            Netscape CA Revocation Url: 
                https://www.tls-o-matic.com/we-never-revoke-ha-ha-ha/ca/
            Netscape Revocation Url: 
                https://www.tls-o-matic.com/we-never-revoke-ha-ha-ha/
            Netscape Renewal Url: 
                https://www.tls-o-matic.com/renew/
            Netscape CA Policy Url: 
                https://www.tls-o-matic.com/policy/
    Signature Algorithm: sha256WithRSAEncryption
         38:34:6e:ff:81:f2:19:a6:a6:f2:3f:1a:1a:d8:12:46:42:9f:
         52:22:da:ae:57:e7:24:d6:50:c5:04:00:4b:c5:4d:b8:09:67:
         dc:e5:ca:18:d5:99:2c:f8:da:1b:44:01:58:4c:40:ab:0b:d0:
         eb:71:9a:ae:1a:83:6a:cc:89:65:14:dc:88:35:32:83:a9:d2:
         07:a8:d6:00:69:ce:66:dc:69:4c:33:4b:65:6a:b9:02:92:65:
         96:78:e7:75:b4:41:3d:97:f1:2a:ca:02:0c:29:c2:79:f7:19:
         a9:a4:b3:2f:f2:75:03:23:7e:15:07:c5:eb:a7:d1:50:8d:ea:
         4d:05:06:4e:14:b2:ef:99:7e:1d:33:ac:8e:ae:d6:95:98:76:
         a7:67:ef:36:64:81:fa:b7:d7:98:f8:b5:20:f0:fb:48:3c:50:
         4c:95:97:5d:15:11:4e:f9:31:78:53:f0:3a:8c:be:b1:e5:e3:
         91:54:b4:67:6c:d7:d4:e0:80:8c:43:7d:5e:8e:b0:25:d3:60:
         ac:8d:e2:62:b3:fe:45:4d:3b:ac:87:da:02:e1:03:8e:ad:c4:
         fc:49:77:92:3b:b8:15:d5:b6:6d:e7:ad:c2:88:46:56:62:b2:
         49:0f:e5:54:46:ed:b2:f4:1e:5d:a3:9e:b0:e5:5e:62:3f:2a:
         af:2d:4b:f5
-----BEGIN CERTIFICATE-----
MIIFCzCCA/OgAwIBAgICEBowDQYJKoZIhvcNAQELBQAwTTEmMCQGA1UECgwdVExT
LU8tTWF0aWMgSW50ZXJtZWRpYXRlIENBIDIxIzAhBgNVBAMMGlRMUy1vLW1hdGlj
LWludGVybWVkaWF0ZS0yMB4XDTE1MDIxNTE2MTA0MFoXDTE2MDIxNTE2MTA0MFow
TTEmMCQGA1UECgwdVExTLU8tTWF0aWMgSW50ZXJtZWRpYXRlIENBIDMxIzAhBgNV
BAMMGlRMUy1vLW1hdGljLWludGVybWVkaWF0ZS0zMIIBIjANBgkqhkiG9w0BAQEF
AAOCAQ8AMIIBCgKCAQEAss5EANb/ENYNfQ/lzQ6E1F5oUbh9ewTV4FsEQbQHe2tx
ZHqc16R8kYcnvCXpEkMBXgezkI2Qh4nJGlMBJpdKzZ3kHJLSCysO1fjVPUfSMgri
tybSm5f/LDNpDvcTxdGLqFgG/aNTOxVIqsCP/7eZpr66rKccloNV5zYPP2Mz7Cpw
FdtmB6TJbjtTW7ZVyDQXkqBJVJdcWu5O5oOCOJvB+kf4zIny6AY3XqMYExG73I4R
uCLxp8iiYkpLAH/Fvi/zH38rEKEO8BKfQB1F0Q9XflLsX3mFni6ule/7F0vfL67d
krgHJ/deY3DuM731gTZz3Spfoxf9cQG+6+R0m2e5vwIDAQABo4IB8zCCAe8wDAYD
VR0TBAUwAwEB/zBrBglghkgBhvhCAQ0EXhZcVExTLU8tTWF0aWMgSW50ZXJtZWRp
YXRlIENlcnRpZmljYXRlIPCflJAgIC4gVGhpcyBpcyBvbmUgaW4gYSBjaGFpbiB0
aGF0IHlvdSBoYXZlIHRvIHZlcmlmeSAwHQYDVR0OBBYEFOxGN7xzCH1SeLy7I1f5
lPBftmNSMB8GA1UdIwQYMBaAFNlNHc1/rCCx3fF0ynwG9J1cBaEKMB0GA1UdEQQW
MBSBEmNhQHRscy1vLW1hdGljLmNvbTAdBgNVHRIEFjAUgRJjYUB0bHMtby1tYXRp
Yy5jb20wRwYJYIZIAYb4QgEEBDoWOGh0dHBzOi8vd3d3LnRscy1vLW1hdGljLmNv
bS93ZS1uZXZlci1yZXZva2UtaGEtaGEtaGEvY2EvMEQGCWCGSAGG+EIBAwQ3FjVo
dHRwczovL3d3dy50bHMtby1tYXRpYy5jb20vd2UtbmV2ZXItcmV2b2tlLWhhLWhh
LWhhLzAxBglghkgBhvhCAQcEJBYiaHR0cHM6Ly93d3cudGxzLW8tbWF0aWMuY29t
L3JlbmV3LzAyBglghkgBhvhCAQgEJRYjaHR0cHM6Ly93d3cudGxzLW8tbWF0aWMu
Y29tL3BvbGljeS8wDQYJKoZIhvcNAQELBQADggEBADg0bv+B8hmmpvI/GhrYEkZC
n1Ii2q5X5yTWUMUEAEvFTbgJZ9zlyhjVmSz42htEAVhMQKsL0Otxmq4ag2rMiWUU
3Ig1MoOp0geo1gBpzmbcaUwzS2VquQKSZZZ453W0QT2X8SrKAgwpwnn3Gamksy/y
dQMjfhUHxeun0VCN6k0FBk4Usu+Zfh0zrI6u1pWYdqdn7zZkgfq315j4tSDw+0g8
UEyVl10VEU75MXhT8DqMvrHl45FUtGds19TggIxDfV6OsCXTYKyN4mKz/kVNO6yH
2gLhA46txPxJd5I7uBXVtm3nrcKIRlZiskkP5VRG7bL0Hl2jnrDlXmI/Kq8tS/U=
-----END CERTIFICATE-----
